******************************************************************************
             TMS320C2000 Linker PC v6.2.5                      
******************************************************************************
>> Linked Fri Apr 07 12:56:05 2017

OUTPUT FILE NAME:   <Quadrotor_S1000_Final1_5.out>
ENTRY POINT SYMBOL: "_c_int00"  address: 0000d58f


MEMORY CONFIGURATION

         name            origin    length      used     unused   attr    fill
----------------------  --------  ---------  --------  --------  ----  --------
PAGE 0:
  BEGIN                 00000000   00000002  00000002  00000000  RWIX
  BOOT_RSVD             00000002   0000004e  00000000  0000004e  RWIX
  RAMM0                 00000050   000003b0  00000000  000003b0  RWIX
  RAML                  00008000   00006800  000062b5  0000054b  RWIX
  ZONE7A                00200000   0000fc00  00000000  0000fc00  RWIX
  CSM_RSVD              0033ff80   00000076  00000000  00000076  RWIX
  CSM_PWL               0033fff8   00000008  00000000  00000008  RWIX
  ADC_CAL               00380080   00000009  00000007  00000002  RWIX
  IQTABLES              003fe000   00000b50  00000000  00000b50  RWIX
  IQTABLES2             003feb50   0000008c  00000000  0000008c  RWIX
  FPUTABLES             003febdc   000006a0  00000000  000006a0  RWIX
  BOOTROM               003ff27c   00000d44  00000000  00000d44  RWIX
  RESET                 003fffc0   00000002  00000000  00000002  RWIX

PAGE 1:
  RAMM                  00000400   00000400  00000300  00000100  RWIX
  DEV_EMU               00000880   00000180  000000d0  000000b0  RWIX
  FLASH_REGS            00000a80   00000060  00000008  00000058  RWIX
  CSM                   00000ae0   00000010  00000010  00000000  RWIX
  ADC_MIRROR            00000b00   00000010  00000010  00000000  RWIX
  XINTF                 00000b20   00000020  0000001e  00000002  RWIX
  CPU_TIMER0            00000c00   00000008  00000008  00000000  RWIX
  CPU_TIMER1            00000c08   00000008  00000008  00000000  RWIX
  CPU_TIMER2            00000c10   00000008  00000008  00000000  RWIX
  PIE_CTRL              00000ce0   00000020  0000001a  00000006  RWIX
  PIE_VECT              00000d00   00000100  00000100  00000000  RWIX
  DMA                   00001000   00000200  000000e0  00000120  RWIX
  MCBSPA                00005000   00000040  00000025  0000001b  RWIX
  MCBSPB                00005040   00000040  00000025  0000001b  RWIX
  ECANA                 00006000   00000040  00000034  0000000c  RWIX
  ECANA_LAM             00006040   00000040  00000040  00000000  RWIX
  ECANA_MOTS            00006080   00000040  00000040  00000000  RWIX
  ECANA_MOTO            000060c0   00000040  00000040  00000000  RWIX
  ECANA_MBOX            00006100   00000100  00000100  00000000  RWIX
  ECANB                 00006200   00000040  00000034  0000000c  RWIX
  ECANB_LAM             00006240   00000040  00000040  00000000  RWIX
  ECANB_MOTS            00006280   00000040  00000040  00000000  RWIX
  ECANB_MOTO            000062c0   00000040  00000040  00000000  RWIX
  ECANB_MBOX            00006300   00000100  00000100  00000000  RWIX
  EPWM1                 00006800   00000022  00000022  00000000  RWIX
  EPWM2                 00006840   00000022  00000022  00000000  RWIX
  EPWM3                 00006880   00000022  00000022  00000000  RWIX
  EPWM4                 000068c0   00000022  00000022  00000000  RWIX
  EPWM5                 00006900   00000022  00000022  00000000  RWIX
  EPWM6                 00006940   00000022  00000022  00000000  RWIX
  ECAP1                 00006a00   00000020  00000020  00000000  RWIX
  ECAP2                 00006a20   00000020  00000020  00000000  RWIX
  ECAP3                 00006a40   00000020  00000020  00000000  RWIX
  ECAP4                 00006a60   00000020  00000020  00000000  RWIX
  ECAP5                 00006a80   00000020  00000020  00000000  RWIX
  ECAP6                 00006aa0   00000020  00000020  00000000  RWIX
  EQEP1                 00006b00   00000040  00000040  00000000  RWIX
  EQEP2                 00006b40   00000040  00000040  00000000  RWIX
  GPIOCTRL              00006f80   00000040  0000002e  00000012  RWIX
  GPIODAT               00006fc0   00000020  00000020  00000000  RWIX
  GPIOINT               00006fe0   00000020  0000000a  00000016  RWIX
  SYSTEM                00007010   00000020  00000020  00000000  RWIX
  SPIA                  00007040   00000010  00000010  00000000  RWIX
  SCIA                  00007050   00000010  00000010  00000000  RWIX
  XINTRUPT              00007070   00000010  00000010  00000000  RWIX
  ADC                   00007100   00000020  0000001e  00000002  RWIX
  SCIB                  00007750   00000010  00000010  00000000  RWIX
  SCIC                  00007770   00000010  00000010  00000000  RWIX
  I2CA                  00007900   00000040  00000022  0000001e  RWIX
  RAMLB                 0000e800   00000800  00000400  00000400  RWIX
  RAML7                 0000f000   00001000  00000dc6  0000023a  RWIX
  ZONE7B                0020fc00   00000400  00000000  00000400  RWIX
  CSM_PWL               0033fff8   00000008  00000008  00000000  RWIX


SECTION ALLOCATION MAP

 output                                  attributes/
section   page    origin      length       input sections
--------  ----  ----------  ----------   ----------------
codestart 
*          0    00000000    00000002     
                  00000000    00000002     DSP2833x_CodeStartBranch.obj (codestart)

.pinit     0    00008000    00000000     UNINITIALIZED

.text      0    00008000    000057b9     
                  00008000    00002456     Fml.obj (.text)
                  0000a456    00000a65     trajectory.obj (.text)
                  0000aebb    00000604     filter.obj (.text)
                  0000b4bf    00000528     Hal.obj (.text)
                  0000b9e7    00000519     Quadrotor.obj (.text:retain)
                  0000bf00    00000369     Fml.obj (.text:retain)
                  0000c269    00000346     decentralized.obj (.text)
                  0000c5af    00000323     DSP2833x_DefaultIsr.obj (.text:retain)
                  0000c8d2    00000243     HMC5983.obj (.text)
                  0000cb15    00000123     rts2800_fpu32.lib : strtod.obj (.text)
                  0000cc38    00000112     DSP2833x_SysCtrl.obj (.text)
                  0000cd4a    00000103     message.obj (.text)
                  0000ce4d    000000dc     formation.obj (.text)
                  0000cf29    000000d9     mathex.obj (.text)
                  0000d002    000000c4     rts2800_fpu32.lib : atan2.obj (.text)
                  0000d0c6    0000009c                       : fd_add.obj (.text)
                  0000d162    00000092     Quadrotor.obj (.text)
                  0000d1f4    0000008b     rts2800_fpu32.lib : fd_div.obj (.text)
                  0000d27f    00000088                       : fs_div.obj (.text)
                  0000d307    00000083                       : fd_mpy.obj (.text)
                  0000d38a    0000007c     DSP2833x_CpuTimers.obj (.text)
                  0000d406    0000006f     rts2800_fpu32.lib : atan.obj (.text)
                  0000d475    00000061                       : cos.obj (.text)
                  0000d4d6    00000061                       : tan.obj (.text)
                  0000d537    00000058                       : sin.obj (.text)
                  0000d58f    00000046                       : boot.obj (.text)
                  0000d5d5    00000031                       : atoi.obj (.text)
                  0000d606    00000028     DSP2833x_PieCtrl.obj (.text)
                  0000d62e    00000023     rts2800_fpu32.lib : fd_tofs.obj (.text)
                  0000d651    00000001     --HOLE-- [fill = 0]
                  0000d652    00000023                       : sqrt.obj (.text)
                  0000d675    00000022                       : i_div.obj (.text)
                  0000d697    00000021                       : memcpy_ff.obj (.text)
                  0000d6b8    00000020     DSP2833x_PieVect.obj (.text)
                  0000d6d8    0000001f     rts2800_fpu32.lib : fd_tol.obj (.text)
                  0000d6f7    0000001d                       : i_tofd.obj (.text)
                  0000d714    0000001c                       : fs_tofd.obj (.text)
                  0000d730    00000019                       : args_main.obj (.text)
                  0000d749    00000019                       : exit.obj (.text)
                  0000d762    00000016                       : frexp.obj (.text)
                  0000d778    00000014                       : ll_mpy.obj (.text)
                  0000d78c    0000000e                       : fd_sub.obj (.text)
                  0000d79a    0000000a                       : strcmp.obj (.text)
                  0000d7a4    00000009                       : _lock.obj (.text)
                  0000d7ad    00000008     DSP2833x_CodeStartBranch.obj (.text)
                  0000d7b5    00000004     rts2800_fpu32.lib : atof.obj (.text)

.cinit     0    0000d7b9    00000af8     
                  0000d7b9    0000045f     Fml.obj (.cinit)
                  0000dc18    00000369     Quadrotor.obj (.cinit)
                  0000df81    000000fc     filter.obj (.cinit)
                  0000e07d    000000c8     trajectory.obj (.cinit)
                  0000e145    000000bc     decentralized.obj (.cinit)
                  0000e201    00000046     MS5803-01BA.obj (.cinit)
                  0000e247    00000021     HMC5983.obj (.cinit)
                  0000e268    0000001f     formation.obj (.cinit)
                  0000e287    0000000a     rts2800_fpu32.lib : _lock.obj (.cinit)
                  0000e291    0000000a                       : exit.obj (.cinit)
                  0000e29b    00000008     Hal.obj (.cinit)
                  0000e2a3    00000008     flightFSM.obj (.cinit)
                  0000e2ab    00000004     rts2800_fpu32.lib : errno.obj (.cinit)
                  0000e2af    00000002     --HOLE-- [fill = 0]

ramfuncs   0    0000e2b1    00000004     
                  0000e2b1    00000004     DSP2833x_usDelay.obj (ramfuncs)

csm_rsvd   0    0033ff80    00000000     DSECT

csmpasswds 
*          0    0033fff8    00000000     DSECT

.adc_cal   0    00380080    00000007     NOLOAD SECTION
                  00380080    00000007     DSP2833x_ADC_cal.obj (.adc_cal)

.reset     0    003fffc0    00000002     DSECT
                  003fffc0    00000002     rts2800_fpu32.lib : boot.obj (.reset)

.stack     1    00000400    00000300     UNINITIALIZED
                  00000400    00000300     --HOLE--

DevEmuRegsFile 
*          1    00000880    000000d0     UNINITIALIZED
                  00000880    000000d0     DSP2833x_GlobalVariableDefs.obj (DevEmuRegsFile)

FlashRegsFile 
*          1    00000a80    00000008     UNINITIALIZED
                  00000a80    00000008     DSP2833x_GlobalVariableDefs.obj (FlashRegsFile)

CsmRegsFile 
*          1    00000ae0    00000010     UNINITIALIZED
                  00000ae0    00000010     DSP2833x_GlobalVariableDefs.obj (CsmRegsFile)

AdcMirrorFile 
*          1    00000b00    00000010     UNINITIALIZED
                  00000b00    00000010     DSP2833x_GlobalVariableDefs.obj (AdcMirrorFile)

XintfRegsFile 
*          1    00000b20    0000001e     UNINITIALIZED
                  00000b20    0000001e     DSP2833x_GlobalVariableDefs.obj (XintfRegsFile)

CpuTimer0RegsFile 
*          1    00000c00    00000008     UNINITIALIZED
                  00000c00    00000008     DSP2833x_GlobalVariableDefs.obj (CpuTimer0RegsFile)

CpuTimer1RegsFile 
*          1    00000c08    00000008     UNINITIALIZED
                  00000c08    00000008     DSP2833x_GlobalVariableDefs.obj (CpuTimer1RegsFile)

CpuTimer2RegsFile 
*          1    00000c10    00000008     UNINITIALIZED
                  00000c10    00000008     DSP2833x_GlobalVariableDefs.obj (CpuTimer2RegsFile)

PieCtrlRegsFile 
*          1    00000ce0    0000001a     UNINITIALIZED
                  00000ce0    0000001a     DSP2833x_GlobalVariableDefs.obj (PieCtrlRegsFile)

PieVectTableFile 
*          1    00000d00    00000100     UNINITIALIZED
                  00000d00    00000100     DSP2833x_GlobalVariableDefs.obj (PieVectTableFile)

DmaRegsFile 
*          1    00001000    000000e0     UNINITIALIZED
                  00001000    000000e0     DSP2833x_GlobalVariableDefs.obj (DmaRegsFile)

McbspaRegsFile 
*          1    00005000    00000025     UNINITIALIZED
                  00005000    00000025     DSP2833x_GlobalVariableDefs.obj (McbspaRegsFile)

McbspbRegsFile 
*          1    00005040    00000025     UNINITIALIZED
                  00005040    00000025     DSP2833x_GlobalVariableDefs.obj (McbspbRegsFile)

ECanaRegsFile 
*          1    00006000    00000034     UNINITIALIZED
                  00006000    00000034     DSP2833x_GlobalVariableDefs.obj (ECanaRegsFile)

ECanaLAMRegsFile 
*          1    00006040    00000040     UNINITIALIZED
                  00006040    00000040     DSP2833x_GlobalVariableDefs.obj (ECanaLAMRegsFile)

ECanaMOTSRegsFile 
*          1    00006080    00000040     UNINITIALIZED
                  00006080    00000040     DSP2833x_GlobalVariableDefs.obj (ECanaMOTSRegsFile)

ECanaMOTORegsFile 
*          1    000060c0    00000040     UNINITIALIZED
                  000060c0    00000040     DSP2833x_GlobalVariableDefs.obj (ECanaMOTORegsFile)

ECanaMboxesFile 
*          1    00006100    00000100     UNINITIALIZED
                  00006100    00000100     DSP2833x_GlobalVariableDefs.obj (ECanaMboxesFile)

ECanbRegsFile 
*          1    00006200    00000034     UNINITIALIZED
                  00006200    00000034     DSP2833x_GlobalVariableDefs.obj (ECanbRegsFile)

ECanbLAMRegsFile 
*          1    00006240    00000040     UNINITIALIZED
                  00006240    00000040     DSP2833x_GlobalVariableDefs.obj (ECanbLAMRegsFile)

ECanbMOTSRegsFile 
*          1    00006280    00000040     UNINITIALIZED
                  00006280    00000040     DSP2833x_GlobalVariableDefs.obj (ECanbMOTSRegsFile)

ECanbMOTORegsFile 
*          1    000062c0    00000040     UNINITIALIZED
                  000062c0    00000040     DSP2833x_GlobalVariableDefs.obj (ECanbMOTORegsFile)

ECanbMboxesFile 
*          1    00006300    00000100     UNINITIALIZED
                  00006300    00000100     DSP2833x_GlobalVariableDefs.obj (ECanbMboxesFile)

EPwm1RegsFile 
*          1    00006800    00000022     UNINITIALIZED
                  00006800    00000022     DSP2833x_GlobalVariableDefs.obj (EPwm1RegsFile)

EPwm2RegsFile 
*          1    00006840    00000022     UNINITIALIZED
                  00006840    00000022     DSP2833x_GlobalVariableDefs.obj (EPwm2RegsFile)

EPwm3RegsFile 
*          1    00006880    00000022     UNINITIALIZED
                  00006880    00000022     DSP2833x_GlobalVariableDefs.obj (EPwm3RegsFile)

EPwm4RegsFile 
*          1    000068c0    00000022     UNINITIALIZED
                  000068c0    00000022     DSP2833x_GlobalVariableDefs.obj (EPwm4RegsFile)

EPwm5RegsFile 
*          1    00006900    00000022     UNINITIALIZED
                  00006900    00000022     DSP2833x_GlobalVariableDefs.obj (EPwm5RegsFile)

EPwm6RegsFile 
*          1    00006940    00000022     UNINITIALIZED
                  00006940    00000022     DSP2833x_GlobalVariableDefs.obj (EPwm6RegsFile)

ECap1RegsFile 
*          1    00006a00    00000020     UNINITIALIZED
                  00006a00    00000020     DSP2833x_GlobalVariableDefs.obj (ECap1RegsFile)

ECap2RegsFile 
*          1    00006a20    00000020     UNINITIALIZED
                  00006a20    00000020     DSP2833x_GlobalVariableDefs.obj (ECap2RegsFile)

ECap3RegsFile 
*          1    00006a40    00000020     UNINITIALIZED
                  00006a40    00000020     DSP2833x_GlobalVariableDefs.obj (ECap3RegsFile)

ECap4RegsFile 
*          1    00006a60    00000020     UNINITIALIZED
                  00006a60    00000020     DSP2833x_GlobalVariableDefs.obj (ECap4RegsFile)

ECap5RegsFile 
*          1    00006a80    00000020     UNINITIALIZED
                  00006a80    00000020     DSP2833x_GlobalVariableDefs.obj (ECap5RegsFile)

ECap6RegsFile 
*          1    00006aa0    00000020     UNINITIALIZED
                  00006aa0    00000020     DSP2833x_GlobalVariableDefs.obj (ECap6RegsFile)

EQep1RegsFile 
*          1    00006b00    00000040     UNINITIALIZED
                  00006b00    00000040     DSP2833x_GlobalVariableDefs.obj (EQep1RegsFile)

EQep2RegsFile 
*          1    00006b40    00000040     UNINITIALIZED
                  00006b40    00000040     DSP2833x_GlobalVariableDefs.obj (EQep2RegsFile)

GpioCtrlRegsFile 
*          1    00006f80    0000002e     UNINITIALIZED
                  00006f80    0000002e     DSP2833x_GlobalVariableDefs.obj (GpioCtrlRegsFile)

GpioDataRegsFile 
*          1    00006fc0    00000020     UNINITIALIZED
                  00006fc0    00000020     DSP2833x_GlobalVariableDefs.obj (GpioDataRegsFile)

GpioIntRegsFile 
*          1    00006fe0    0000000a     UNINITIALIZED
                  00006fe0    0000000a     DSP2833x_GlobalVariableDefs.obj (GpioIntRegsFile)

SysCtrlRegsFile 
*          1    00007010    00000020     UNINITIALIZED
                  00007010    00000020     DSP2833x_GlobalVariableDefs.obj (SysCtrlRegsFile)

SpiaRegsFile 
*          1    00007040    00000010     UNINITIALIZED
                  00007040    00000010     DSP2833x_GlobalVariableDefs.obj (SpiaRegsFile)

SciaRegsFile 
*          1    00007050    00000010     UNINITIALIZED
                  00007050    00000010     DSP2833x_GlobalVariableDefs.obj (SciaRegsFile)

XIntruptRegsFile 
*          1    00007070    00000010     UNINITIALIZED
                  00007070    00000010     DSP2833x_GlobalVariableDefs.obj (XIntruptRegsFile)

AdcRegsFile 
*          1    00007100    0000001e     UNINITIALIZED
                  00007100    0000001e     DSP2833x_GlobalVariableDefs.obj (AdcRegsFile)

ScibRegsFile 
*          1    00007750    00000010     UNINITIALIZED
                  00007750    00000010     DSP2833x_GlobalVariableDefs.obj (ScibRegsFile)

ScicRegsFile 
*          1    00007770    00000010     UNINITIALIZED
                  00007770    00000010     DSP2833x_GlobalVariableDefs.obj (ScicRegsFile)

I2caRegsFile 
*          1    00007900    00000022     UNINITIALIZED
                  00007900    00000022     DSP2833x_GlobalVariableDefs.obj (I2caRegsFile)

SD_BUFFER 
*          1    0000e800    00000400     UNINITIALIZED
                  0000e800    00000400     Fml.obj (SD_BUFFER)

.ebss      1    0000f000    00000ad7     UNINITIALIZED
                  0000f000    00000500     Fml.obj (.ebss)
                  0000f500    0000035c     Quadrotor.obj (.ebss)
                  0000f85c    0000001e     MS5803-01BA.obj (.ebss)
                  0000f87a    00000004     rts2800_fpu32.lib : _lock.obj (.ebss)
                  0000f87e    00000002     flightFSM.obj (.ebss)
                  0000f880    00000100     trajectory.obj (.ebss)
                  0000f980    00000090     decentralized.obj (.ebss)
                  0000fa10    00000018     DSP2833x_CpuTimers.obj (.ebss)
                  0000fa28    00000014     formation.obj (.ebss)
                  0000fa3c    00000004     rts2800_fpu32.lib : exit.obj (.ebss)
                  0000fa40    0000007e     filter.obj (.ebss)
                  0000fabe    00000001     rts2800_fpu32.lib : errno.obj (.ebss)
                  0000fabf    00000001     --HOLE--
                  0000fac0    0000000e     HMC5983.obj (.ebss)
                  0000face    00000009     Hal.obj (.ebss)

.econst    1    0000fad8    000002ef     
                  0000fad8    00000101     rts2800_fpu32.lib : ctype.obj (.econst:.string:__ctypes_)
                  0000fbd9    00000001     --HOLE-- [fill = 0]
                  0000fbda    00000100     DSP2833x_PieVect.obj (.econst)
                  0000fcda    0000004c     Fml.obj (.econst)
                  0000fd26    00000014     rts2800_fpu32.lib : strtod.obj (.econst:_digits)
                  0000fd3a    0000000c                       : strtod.obj (.econst:_powerof10)
                  0000fd46    00000008                       : atan.obj (.econst:_a$1)
                  0000fd4e    00000008                       : atan2.obj (.econst:_a$1)
                  0000fd56    00000008     filter.obj (.econst)
                  0000fd5e    00000006     Fml.obj (.econst:.string)
                  0000fd64    00000006     Quadrotor.obj (.econst)
                  0000fd6a    00000006     Fml.obj (.econst:_B_acc)
                  0000fd70    00000006     Fml.obj (.econst:_B_gyro)
                  0000fd76    00000006     Fml.obj (.econst:_K_acc)
                  0000fd7c    00000006     Fml.obj (.econst:_K_gyro)
                  0000fd82    00000006     Fml.obj (.econst:_MAG_OFFSET)
                  0000fd88    00000006     Fml.obj (.econst:_MAG_SCALE)
                  0000fd8e    00000006     Fml.obj (.econst:_RC_ATT_SAT)
                  0000fd94    00000006     Fml.obj (.econst:_RCinputDZ)
                  0000fd9a    00000006     Fml.obj (.econst:_T_model)
                  0000fda0    00000006     Fml.obj (.econst:_a_model)
                  0000fda6    00000006     filter.obj (.econst:_kp)
                  0000fdac    00000006     filter.obj (.econst:_kv)
                  0000fdb2    00000006     constants.obj (.econst)
                  0000fdb8    00000004     Fml.obj (.econst:_$P$T0$1)
                  0000fdbc    00000004     Fml.obj (.econst:_KitoVel)
                  0000fdc0    00000004     trajectory.obj (.econst)
                  0000fdc4    00000003     HMC5983.obj (.econst)

CsmPwlFile 
*          1    0033fff8    00000008     UNINITIALIZED
                  0033fff8    00000008     DSP2833x_GlobalVariableDefs.obj (CsmPwlFile)


GLOBAL DATA SYMBOLS: SORTED BY DATA PAGE

address     data page           name
--------    ----------------    ----
00000400      10 (00000400)     __stack

00000880      22 (00000880)     _DevEmuRegs

00000a80      2a (00000a80)     _FlashRegs

00000ae0      2b (00000ac0)     _CsmRegs

00000b00      2c (00000b00)     _AdcMirror
00000b20      2c (00000b00)     _XintfRegs

00000c00      30 (00000c00)     _CpuTimer0Regs
00000c08      30 (00000c00)     _CpuTimer1Regs
00000c10      30 (00000c00)     _CpuTimer2Regs

00000ce0      33 (00000cc0)     _PieCtrlRegs

00000d00      34 (00000d00)     _PieVectTable

00001000      40 (00001000)     _DmaRegs

00005000     140 (00005000)     _McbspaRegs

00005040     141 (00005040)     _McbspbRegs

00006000     180 (00006000)     _ECanaRegs

00006040     181 (00006040)     _ECanaLAMRegs

00006080     182 (00006080)     _ECanaMOTSRegs

000060c0     183 (000060c0)     _ECanaMOTORegs

00006100     184 (00006100)     _ECanaMboxes

00006200     188 (00006200)     _ECanbRegs

00006240     189 (00006240)     _ECanbLAMRegs

00006280     18a (00006280)     _ECanbMOTSRegs

000062c0     18b (000062c0)     _ECanbMOTORegs

00006300     18c (00006300)     _ECanbMboxes

00006800     1a0 (00006800)     _EPwm1Regs

00006840     1a1 (00006840)     _EPwm2Regs

00006880     1a2 (00006880)     _EPwm3Regs

000068c0     1a3 (000068c0)     _EPwm4Regs

00006900     1a4 (00006900)     _EPwm5Regs

00006940     1a5 (00006940)     _EPwm6Regs

00006a00     1a8 (00006a00)     _ECap1Regs
00006a20     1a8 (00006a00)     _ECap2Regs

00006a40     1a9 (00006a40)     _ECap3Regs
00006a60     1a9 (00006a40)     _ECap4Regs

00006a80     1aa (00006a80)     _ECap5Regs
00006aa0     1aa (00006a80)     _ECap6Regs

00006b00     1ac (00006b00)     _EQep1Regs

00006b40     1ad (00006b40)     _EQep2Regs

00006f80     1be (00006f80)     _GpioCtrlRegs

00006fc0     1bf (00006fc0)     _GpioDataRegs
00006fe0     1bf (00006fc0)     _GpioIntRegs

00007010     1c0 (00007000)     _SysCtrlRegs

00007040     1c1 (00007040)     _SpiaRegs
00007050     1c1 (00007040)     _SciaRegs
00007070     1c1 (00007040)     _XIntruptRegs

00007100     1c4 (00007100)     _AdcRegs

00007750     1dd (00007740)     _ScibRegs
00007770     1dd (00007740)     _ScicRegs

00007900     1e4 (00007900)     _I2caRegs

0000e800     3a0 (0000e800)     _SD_buffer

0000f000     3c0 (0000f000)     _cnt_CG
0000f001     3c0 (0000f000)     _cnt_MA
0000f002     3c0 (0000f000)     _rec_Scia
0000f003     3c0 (0000f000)     _RX_Count
0000f004     3c0 (0000f000)     _time_count_UWB
0000f005     3c0 (0000f000)     _data_temp
0000f006     3c0 (0000f000)     _BiasGPS_X
0000f007     3c0 (0000f000)     _cnt_comma
0000f008     3c0 (0000f000)     _BiasGPS_Y
0000f009     3c0 (0000f000)     _countHomePoint
0000f00a     3c0 (0000f000)     _isSure
0000f00b     3c0 (0000f000)     _pHead
0000f00c     3c0 (0000f000)     _pTail
0000f00d     3c0 (0000f000)     _cnt_GPS
0000f00e     3c0 (0000f000)     _lenGPS
0000f00f     3c0 (0000f000)     _FlagSetHP
0000f010     3c0 (0000f000)     _lenBuffer
0000f011     3c0 (0000f000)     _cnt_SDW
0000f012     3c0 (0000f000)     _pWrite
0000f013     3c0 (0000f000)     _offBufHead
0000f014     3c0 (0000f000)     _retSD
0000f015     3c0 (0000f000)     _debugonly
0000f016     3c0 (0000f000)     _xc
0000f017     3c0 (0000f000)     _bBACal
0000f018     3c0 (0000f000)     _zc
0000f019     3c0 (0000f000)     _offBufTail
0000f01a     3c0 (0000f000)     _yc
0000f01b     3c0 (0000f000)     _cnt_SDBA
0000f01c     3c0 (0000f000)     _bRC6high
0000f01d     3c0 (0000f000)     _cnt_RC6
0000f01e     3c0 (0000f000)     _bThroOff
0000f01f     3c0 (0000f000)     _lenWRL
0000f020     3c0 (0000f000)     _rec_Scic
0000f021     3c0 (0000f000)     _bShutdown
0000f022     3c0 (0000f000)     _isTakeOff
0000f023     3c0 (0000f000)     _bTurnAuto
0000f024     3c0 (0000f000)     _cnt_SDR
0000f025     3c0 (0000f000)     _bUSIdle
0000f026     3c0 (0000f000)     _cnt_GRC
0000f027     3c0 (0000f000)     _cnt_SV
0000f028     3c0 (0000f000)     _cnt_URMTrigger
0000f02a     3c0 (0000f000)     _U3_
0000f02c     3c0 (0000f000)     _U2_
0000f02e     3c0 (0000f000)     _U2
0000f030     3c0 (0000f000)     _U4_
0000f032     3c0 (0000f000)     _U3
0000f034     3c0 (0000f000)     _U3i
0000f036     3c0 (0000f000)     _Ki_roll
0000f038     3c0 (0000f000)     _U4i
0000f03a     3c0 (0000f000)     _accx_feed
0000f03c     3c0 (0000f000)     _accy_feed_
0000f03e     3c0 (0000f000)     _accy_feed

0000f040     3c1 (0000f040)     _Kp_y
0000f042     3c1 (0000f040)     _Kp_x
0000f044     3c1 (0000f040)     _Kp_z
0000f046     3c1 (0000f040)     _U2d
0000f048     3c1 (0000f040)     _U4
0000f04a     3c1 (0000f040)     _U3d
0000f04c     3c1 (0000f040)     _U4d
0000f04e     3c1 (0000f040)     _Kd_roll
0000f050     3c1 (0000f040)     _accx_feed_
0000f052     3c1 (0000f040)     _K_x_acc
0000f054     3c1 (0000f040)     _Ts_roll
0000f056     3c1 (0000f040)     _Ts_pitch
0000f058     3c1 (0000f040)     _Ts_yaw
0000f05a     3c1 (0000f040)     _Kp_x_roll
0000f05c     3c1 (0000f040)     _K_y_acc
0000f05e     3c1 (0000f040)     _Kq_y_pitch
0000f060     3c1 (0000f040)     _fre_anglerate
0000f062     3c1 (0000f040)     _Kr_z_yaw
0000f064     3c1 (0000f040)     _Kd_pitch
0000f066     3c1 (0000f040)     _U2i
0000f068     3c1 (0000f040)     _Kp_pitch
0000f06a     3c1 (0000f040)     _Ki_yaw
0000f06c     3c1 (0000f040)     _alfa_accfeedback
0000f06e     3c1 (0000f040)     _Kd_yaw
0000f070     3c1 (0000f040)     _Kp_yaw
0000f072     3c1 (0000f040)     _Ki_pitch
0000f074     3c1 (0000f040)     _pres2height
0000f076     3c1 (0000f040)     _hBA
0000f078     3c1 (0000f040)     _bufI32
0000f07a     3c1 (0000f040)     _p_bias
0000f07c     3c1 (0000f040)     _Sector_buffer

0000f090     3c2 (0000f080)     _pdX
0000f092     3c2 (0000f080)     _pdY
0000f094     3c2 (0000f080)     _intgX
0000f096     3c2 (0000f080)     _err_height
0000f098     3c2 (0000f080)     _err_height_
0000f09a     3c2 (0000f080)     _intgY
0000f09c     3c2 (0000f080)     _Kd_z
0000f09e     3c2 (0000f080)     _Ki_x
0000f0a0     3c2 (0000f080)     _Kd_x
0000f0a2     3c2 (0000f080)     _Ki_z
0000f0a4     3c2 (0000f080)     _Kd_y
0000f0a6     3c2 (0000f080)     _Ki_y
0000f0aa     3c2 (0000f080)     _basicOut
0000f0ac     3c2 (0000f080)     _err_vheight_
0000f0ae     3c2 (0000f080)     _vheight_
0000f0b0     3c2 (0000f080)     _height_
0000f0b2     3c2 (0000f080)     _err_vheight
0000f0b4     3c2 (0000f080)     _intg_height
0000f0b6     3c2 (0000f080)     _w2
0000f0b8     3c2 (0000f080)     _w4
0000f0ba     3c2 (0000f080)     _Sfai_hat
0000f0bc     3c2 (0000f080)     _KLong2Meter
0000f0be     3c2 (0000f080)     _vTemp

0000f0c0     3c3 (0000f0c0)     _KLati2Meter
0000f0c2     3c3 (0000f0c0)     _w3
0000f0c4     3c3 (0000f0c0)     _Cfai_hat
0000f0c6     3c3 (0000f0c0)     _Csita_hat
0000f0c8     3c3 (0000f0c0)     _Tsita_hat
0000f0ca     3c3 (0000f0c0)     _w1
0000f0cc     3c3 (0000f0c0)     _anglenow
0000f0ce     3c3 (0000f0c0)     _Height_URM37
0000f0d0     3c3 (0000f0c0)     _Kp_roll
0000f0d2     3c3 (0000f0c0)     _flp_temp
0000f0d4     3c3 (0000f0c0)     _RC_alfa
0000f0d6     3c3 (0000f0c0)     _RCInput
0000f0d8     3c3 (0000f0c0)     _err_pitch_f
0000f0dc     3c3 (0000f0c0)     _err_yaw_f
0000f0e0     3c3 (0000f0c0)     _Longitude_zero
0000f0e4     3c3 (0000f0c0)     _Latitude_zero
0000f0e8     3c3 (0000f0c0)     _Cos_Latitude_zero
0000f0ec     3c3 (0000f0c0)     _Atitude_zero
0000f0f0     3c3 (0000f0c0)     _pos1_set
0000f0f4     3c3 (0000f0c0)     _att_set_NAV
0000f0f8     3c3 (0000f0c0)     _vel1_set
0000f0fc     3c3 (0000f0c0)     _RCinputSM

0000f100     3c4 (0000f100)     _err_roll_f
0000f104     3c4 (0000f100)     _err_yaw
0000f108     3c4 (0000f100)     _err_roll
0000f10c     3c4 (0000f100)     _err_pitch
0000f110     3c4 (0000f100)     _buf_Acc
0000f116     3c4 (0000f100)     _gyro_bias_sum
0000f11c     3c4 (0000f100)     _gyro_bias
0000f122     3c4 (0000f100)     _d_att
0000f128     3c4 (0000f100)     _att_hat
0000f12e     3c4 (0000f100)     _d_att_hat
0000f134     3c4 (0000f100)     _f
0000f13a     3c4 (0000f100)     _g

0000f140     3c5 (0000f140)     _rc_att_out
0000f146     3c5 (0000f140)     _gyro_V4
0000f14c     3c5 (0000f140)     _Uout_gyro_
0000f152     3c5 (0000f140)     _rc_att_u_
0000f158     3c5 (0000f140)     _att_set_V4
0000f15e     3c5 (0000f140)     _posGPS_
0000f164     3c5 (0000f140)     _homepoint
0000f16a     3c5 (0000f140)     _sensitivity
0000f170     3c5 (0000f140)     _Uout_V4plus_
0000f176     3c5 (0000f140)     _Uout_V4plus

0000f180     3c6 (0000f180)     _Uout_gyro
0000f186     3c6 (0000f180)     _strZigbeeResetAddr
0000f18e     3c6 (0000f180)     _att_1
0000f196     3c6 (0000f180)     _pwm_c
0000f19e     3c6 (0000f180)     _att_0
0000f1a6     3c6 (0000f180)     _pwm_o
0000f1ae     3c6 (0000f180)     _UWB

0000f1c0     3c7 (0000f1c0)     _gyro_0
0000f1cc     3c7 (0000f1c0)     _RC_width
0000f1d8     3c7 (0000f1c0)     _gyro_2
0000f1e4     3c7 (0000f1c0)     _mag_1
0000f1f0     3c7 (0000f1c0)     _mag_0

0000f200     3c8 (0000f200)     _gyro_1
0000f20c     3c8 (0000f200)     _acc_2
0000f218     3c8 (0000f200)     _acc_1
0000f224     3c8 (0000f200)     _acc_0
0000f230     3c8 (0000f200)     _mag_2

0000f240     3c9 (0000f240)     _rdataA
0000f250     3c9 (0000f240)     _rc_att_z_
0000f262     3c9 (0000f240)     _rc_att_z

0000f280     3ca (0000f280)     _pComma
0000f294     3ca (0000f280)     _UWBRxBuffer

0000f2de     3cb (0000f2c0)     _Wirelessstring

0000f300     3cc (0000f300)     _GPS

0000f340     3cd (0000f340)     _arraySchedule

0000f380     3ce (0000f380)     _msgRead

0000f3c0     3cf (0000f3c0)     _msgRecv

0000f400     3d0 (0000f400)     _b_send

0000f480     3d2 (0000f480)     _GPSstring

0000f500     3d4 (0000f500)     _bInitializing
0000f501     3d4 (0000f500)     _iNeighbors
0000f502     3d4 (0000f500)     _ack
0000f503     3d4 (0000f500)     _timer_count
0000f504     3d4 (0000f500)     _swarmflag
0000f505     3d4 (0000f500)     _temp_HMC
0000f506     3d4 (0000f500)     _n_poscycle
0000f507     3d4 (0000f500)     _pres_biased
0000f508     3d4 (0000f500)     _bAutoMode
0000f509     3d4 (0000f500)     _bUScal
0000f50a     3d4 (0000f500)     _nsvGPS
0000f50b     3d4 (0000f500)     _i_w
0000f50c     3d4 (0000f500)     _bGPSnormal
0000f50d     3d4 (0000f500)     _bStatus
0000f50e     3d4 (0000f500)     _FlagYawRun
0000f50f     3d4 (0000f500)     _YawSpinRun
0000f510     3d4 (0000f500)     _FLAG_HeightFliter
0000f511     3d4 (0000f500)     _com_period_report
0000f512     3d4 (0000f500)     _com_period_formation
0000f513     3d4 (0000f500)     _bGPSUpdate
0000f514     3d4 (0000f500)     _flagHMC
0000f516     3d4 (0000f500)     _height_backup
0000f518     3d4 (0000f500)     _att_error
0000f51a     3d4 (0000f500)     _att_zero
0000f51c     3d4 (0000f500)     _height_US
0000f51e     3d4 (0000f500)     _height_BA
0000f520     3d4 (0000f500)     _height
0000f522     3d4 (0000f500)     _vHeight
0000f524     3d4 (0000f500)     _w_all
0000f526     3d4 (0000f500)     _tGPS_0
0000f528     3d4 (0000f500)     _wrlStr
0000f52a     3d4 (0000f500)     _gspeedGPS
0000f52c     3d4 (0000f500)     _trackGPS
0000f52e     3d4 (0000f500)     _time_zero
0000f530     3d4 (0000f500)     _tGPS_1
0000f532     3d4 (0000f500)     _tempa
0000f534     3d4 (0000f500)     _yaw
0000f536     3d4 (0000f500)     _t0
0000f538     3d4 (0000f500)     _sectorSD
0000f53a     3d4 (0000f500)     _pres
0000f53c     3d4 (0000f500)     _msgR

0000f540     3d5 (0000f540)     _HMC_TESTRg
0000f543     3d5 (0000f540)     _HMC_REGIS
0000f546     3d5 (0000f540)     _cmps_raw
0000f549     3d5 (0000f540)     _gyro_raw
0000f54c     3d5 (0000f540)     _HMC_raw
0000f54f     3d5 (0000f540)     _acc_raw
0000f552     3d5 (0000f540)     _fsm
0000f556     3d5 (0000f540)     _RCacc_set
0000f55a     3d5 (0000f540)     _pwm_i
0000f55e     3d5 (0000f540)     _timeGPS
0000f562     3d5 (0000f540)     _RCpos_set
0000f566     3d5 (0000f540)     _RCspd_set
0000f56a     3d5 (0000f540)     _pos_r
0000f570     3d5 (0000f540)     _att2
0000f576     3d5 (0000f540)     _vGPS_dif

0000f580     3d6 (0000f580)     _vGPS
0000f586     3d6 (0000f580)     _vGPS_ori
0000f58c     3d6 (0000f580)     _pos
0000f592     3d6 (0000f580)     _ure
0000f598     3d6 (0000f580)     _posGPS
0000f59e     3d6 (0000f580)     _att_a
0000f5a4     3d6 (0000f580)     _att
0000f5aa     3d6 (0000f580)     _spd_setsum
0000f5b0     3d6 (0000f580)     _acc_setsum
0000f5b6     3d6 (0000f580)     _att_set

0000f5c0     3d7 (0000f5c0)     _pos_setsum
0000f5c6     3d7 (0000f5c0)     _spd_set
0000f5cc     3d7 (0000f5c0)     _spd_sett_
0000f5d2     3d7 (0000f5c0)     _spd_zero
0000f5d8     3d7 (0000f5c0)     _vel
0000f5de     3d7 (0000f5c0)     _gyro
0000f5e4     3d7 (0000f5c0)     _acc_bodyframe
0000f5ea     3d7 (0000f5c0)     _v_ctrl
0000f5f0     3d7 (0000f5c0)     _mag
0000f5f6     3d7 (0000f5c0)     _pos_set

0000f600     3d8 (0000f600)     _acc
0000f606     3d8 (0000f600)     _acc_f
0000f60c     3d8 (0000f600)     _pos_zero
0000f612     3d8 (0000f600)     _acc_set
0000f618     3d8 (0000f600)     _p_c
0000f61e     3d8 (0000f600)     _output
0000f626     3d8 (0000f600)     _pwm
0000f62e     3d8 (0000f600)     _w

0000f640     3d9 (0000f640)     _rcctrl
0000f64c     3d9 (0000f640)     _cmdS
0000f659     3d9 (0000f640)     _cmdR

0000f680     3da (0000f680)     _aRef

0000f6c0     3db (0000f6c0)     _aSelf

0000f700     3dc (0000f700)     _scdFlight

0000f740     3dd (0000f740)     _msg

0000f780     3de (0000f780)     _aNeighbors

0000f85c     3e1 (0000f840)     _bMS5803_On
0000f85d     3e1 (0000f840)     _cHigh
0000f85e     3e1 (0000f840)     _T_REF
0000f85f     3e1 (0000f840)     _TEMPSENS
0000f860     3e1 (0000f840)     _TCO
0000f861     3e1 (0000f840)     _iMS5803
0000f862     3e1 (0000f840)     _retMS5803
0000f863     3e1 (0000f840)     _bPrs
0000f864     3e1 (0000f840)     _bTemp
0000f865     3e1 (0000f840)     _cLow
0000f866     3e1 (0000f840)     _OFF_T1
0000f867     3e1 (0000f840)     _TCS
0000f868     3e1 (0000f840)     _SENS_T1
0000f86a     3e1 (0000f840)     _D1
0000f86c     3e1 (0000f840)     _TEMP
0000f86e     3e1 (0000f840)     _dT
0000f870     3e1 (0000f840)     _D2
0000f872     3e1 (0000f840)     _SENS
0000f876     3e1 (0000f840)     _OFF
0000f87a     3e1 (0000f840)     __unlock
0000f87c     3e1 (0000f840)     __lock
0000f87e     3e1 (0000f840)     _cnt_idle
0000f87f     3e1 (0000f840)     _cnt_landing

0000f880     3e2 (0000f880)     _disp
0000f882     3e2 (0000f880)     _spd
0000f884     3e2 (0000f880)     _t_Traj
0000f888     3e2 (0000f880)     _vmax
0000f88a     3e2 (0000f880)     _acce
0000f88c     3e2 (0000f880)     _sita_t

0000f8c0     3e3 (0000f8c0)     _traj_ab

0000f980     3e6 (0000f980)     _k12
0000f982     3e6 (0000f980)     _k22
0000f984     3e6 (0000f980)     _uy
0000f986     3e6 (0000f980)     _k11
0000f988     3e6 (0000f980)     _k21
0000f98a     3e6 (0000f980)     _ux
0000f98c     3e6 (0000f980)     _offsetvx
0000f98e     3e6 (0000f980)     _addrNeighbors
0000f990     3e6 (0000f980)     _tmCom
0000f996     3e6 (0000f980)     _vv_
0000f99c     3e6 (0000f980)     _vv
0000f9a2     3e6 (0000f980)     _f_hat_
0000f9a8     3e6 (0000f980)     _f_hat
0000f9ae     3e6 (0000f980)     _vel_hat_r_
0000f9b4     3e6 (0000f980)     _pos_hat_r_
0000f9ba     3e6 (0000f980)     _vel_hat_r

0000f9c0     3e7 (0000f9c0)     _pos_f
0000f9c6     3e7 (0000f9c0)     _vel_f
0000f9cc     3e7 (0000f9c0)     _pos_hat_r
0000f9d2     3e7 (0000f9c0)     _vel_hat_e
0000f9d8     3e7 (0000f9c0)     _pos_hat_e_
0000f9de     3e7 (0000f9c0)     _vel_hat_e_
0000f9e4     3e7 (0000f9c0)     _res1
0000f9ea     3e7 (0000f9c0)     _u
0000f9f0     3e7 (0000f9c0)     _pos_hat_e
0000f9f6     3e7 (0000f9c0)     _res2

0000fa00     3e8 (0000fa00)     _uatt_0
0000fa08     3e8 (0000fa00)     _uatt_1
0000fa10     3e8 (0000fa00)     _CpuTimer1
0000fa18     3e8 (0000fa00)     _CpuTimer2
0000fa20     3e8 (0000fa00)     _CpuTimer0
0000fa28     3e8 (0000fa00)     _bLeader
0000fa2a     3e8 (0000fa00)     _pos_offset
0000fa30     3e8 (0000fa00)     _pos_leader
0000fa36     3e8 (0000fa00)     _vel_leader
0000fa3c     3e8 (0000fa00)     ___TI_cleanup_ptr
0000fa3e     3e8 (0000fa00)     ___TI_dtors_ptr

0000fa40     3e9 (0000fa40)     _cntUSjump
0000fa41     3e9 (0000fa40)     _cntUSoff
0000fa72     3e9 (0000fa40)     _t
0000fa74     3e9 (0000fa40)     _t_

0000fa88     3ea (0000fa80)     _p_hat_
0000fa8e     3ea (0000fa80)     _v_hat_
0000fa94     3ea (0000fa80)     _p_hat
0000fa9a     3ea (0000fa80)     _ep
0000faa0     3ea (0000fa80)     _ev
0000faa6     3ea (0000fa80)     _pi_
0000faac     3ea (0000fa80)     _v_hat
0000fab2     3ea (0000fa80)     _ag_
0000fab8     3ea (0000fa80)     _vi_
0000fabe     3ea (0000fa80)     _errno

0000fac0     3eb (0000fac0)     _iHMC
0000fac1     3eb (0000fac0)     _cnt_HMC
0000fac2     3eb (0000fac0)     _retHMC
0000fac3     3eb (0000fac0)     _MagZ
0000fac4     3eb (0000fac0)     _MagX
0000fac5     3eb (0000fac0)     _MagY
0000fac6     3eb (0000fac0)     _Ratio_HMC
0000fac8     3eb (0000fac0)     _cmps_raw_
0000facb     3eb (0000fac0)     _cmps_sum
0000face     3eb (0000fac0)     _output_TLC
0000facf     3eb (0000fac0)     _cnt_HQ7001
0000fad0     3eb (0000fac0)     _cnt_TLC
0000fad1     3eb (0000fac0)     _cRet
0000fad2     3eb (0000fac0)     _bSDExist
0000fad3     3eb (0000fac0)     _retSDEx
0000fad4     3eb (0000fac0)     _ret_HQ7001
0000fad5     3eb (0000fac0)     _iSD
0000fad6     3eb (0000fac0)     _cnt_SD
0000fad8     3eb (0000fac0)     __ctypes_

0000fbda     3ef (0000fbc0)     _PieVectTableInit

0000fcda     3f3 (0000fcc0)     _MEANCYCLE
0000fcdb     3f3 (0000fcc0)     _net_address
0000fcdc     3f3 (0000fcc0)     _U3i_sat
0000fcde     3f3 (0000fcc0)     _U2i_sat
0000fce0     3f3 (0000fcc0)     _U4i_sat
0000fce2     3f3 (0000fcc0)     _U2_sat
0000fce4     3f3 (0000fcc0)     _U3_sat
0000fce6     3f3 (0000fcc0)     _U2d_sat
0000fce8     3f3 (0000fcc0)     _U3d_sat
0000fcea     3f3 (0000fcc0)     _U4d_sat
0000fcec     3f3 (0000fcc0)     _U4_sat
0000fcee     3f3 (0000fcc0)     _KHa
0000fcf0     3f3 (0000fcc0)     _KHi
0000fcf2     3f3 (0000fcc0)     _KHv
0000fcf4     3f3 (0000fcc0)     _INTG_POS_SAT
0000fcf6     3f3 (0000fcc0)     _basicOutGround
0000fcf8     3f3 (0000fcc0)     _basicOutFly
0000fcfa     3f3 (0000fcc0)     _fGYRO
0000fcfe     3f3 (0000fcc0)     _MAGNETIC_VARIATION

0000fd00     3f4 (0000fd00)     _fMag
0000fd02     3f4 (0000fd00)     _fACC
0000fd04     3f4 (0000fd00)     _Duty
0000fd06     3f4 (0000fd00)     _K_f2t
0000fd08     3f4 (0000fd00)     _B_f2t
0000fd0a     3f4 (0000fd00)     _B_t2t
0000fd0c     3f4 (0000fd00)     _PULSE_MIN
0000fd0e     3f4 (0000fd00)     _PULSE_MAX
0000fd10     3f4 (0000fd00)     _K_t2t

0000fd56     3f5 (0000fd40)     _biasGravity
0000fd58     3f5 (0000fd40)     _Khba
0000fd5a     3f5 (0000fd40)     _Khv
0000fd5c     3f5 (0000fd40)     _Kha
0000fd64     3f5 (0000fd40)     _addr_follower
0000fd65     3f5 (0000fd40)     _addr_leader
0000fd66     3f5 (0000fd40)     _addr_server
0000fd68     3f5 (0000fd40)     _w_sat
0000fd6a     3f5 (0000fd40)     _B_acc
0000fd70     3f5 (0000fd40)     _B_gyro
0000fd76     3f5 (0000fd40)     _K_acc
0000fd7c     3f5 (0000fd40)     _K_gyro

0000fd82     3f6 (0000fd80)     _MAG_OFFSET
0000fd88     3f6 (0000fd80)     _MAG_SCALE
0000fd8e     3f6 (0000fd80)     _RC_ATT_SAT
0000fd94     3f6 (0000fd80)     _RCinputDZ
0000fd9a     3f6 (0000fd80)     _T_model
0000fda0     3f6 (0000fd80)     _a_model
0000fdb2     3f6 (0000fd80)     _PITCH_SAT
0000fdb4     3f6 (0000fd80)     _fATTSET
0000fdb6     3f6 (0000fd80)     _DTIME_INNERLOOP
0000fdbc     3f6 (0000fd80)     _KitoVel

0000fdc0     3f7 (0000fdc0)     _errYaw
0000fdc2     3f7 (0000fdc0)     _minyawstep
0000fdc4     3f7 (0000fdc0)     _HMCCOUNTend
0000fdc5     3f7 (0000fdc0)     _HMCCOUNTbegin
0000fdc6     3f7 (0000fdc0)     _HMC_threshold

0033fff8    cfff (0033ffc0)     _CsmPwl


GLOBAL SYMBOLS: SORTED ALPHABETICALLY BY Name 

address    name
--------   ----
00008000   .text
0000d749   C$$EXIT
0000d0c6   FD$$ADD
0000d1f4   FD$$DIV
0000d307   FD$$MPY
0000d78c   FD$$SUB
0000d62e   FD$$TOFS
0000d6d8   FD$$TOL
0000d27f   FS$$DIV
0000d714   FS$$TOFD
0000d675   I$$DIV
0000d686   I$$MOD
0000d6f7   I$$TOFD
0000d778   LL$$MPY
0000c695   _ADCINT_ISR
00380080   _ADC_cal
000086ea   _AccFilter
00000b00   _AdcMirror
00007100   _AdcRegs
0000c50f   _AgentStates2Cmd
000081b3   _Ascll2Float
0000f0ec   _Atitude_zero
000092c2   _AttCtrl_V4
000085b9   _AttFilter
0000fd6a   _B_acc
0000fd08   _B_f2t
0000fd70   _B_gyro
0000fd0a   _B_t2t
0000a247   _Baro2Height
0000a25e   _Baro2Height_cal
0000a289   _Baro2Height_cal2
0000f006   _BiasGPS_X
0000f008   _BiasGPS_Y
00008581   _CalcAcc_bodyframe
000084ca   _CalcAtt_a
0000f0c4   _Cfai_hat
0000cdc3   _Cmd2Msg
0000c4b8   _ComTimerReset
0000c48d   _ComTimerRun
0000d3cb   _ConfigCpuTimer
000083a8   _ConvAcc
000083e5   _ConvGyro
0000f0e8   _Cos_Latitude_zero
0000fa20   _CpuTimer0
00000c00   _CpuTimer0Regs
0000fa10   _CpuTimer1
00000c08   _CpuTimer1Regs
0000fa18   _CpuTimer2
00000c10   _CpuTimer2Regs
0000f0c6   _Csita_hat
0033fff8   _CsmPwl
00000ae0   _CsmRegs
0000cd19   _CsmUnlock
0000f86a   _D1
0000f870   _D2
0000c5c3   _DATALOG_ISR
0000c7b7   _DINTCH1_ISR
0000c7c1   _DINTCH2_ISR
0000c7cb   _DINTCH3_ISR
0000c7d5   _DINTCH4_ISR
0000c7df   _DINTCH5_ISR
0000c7e9   _DINTCH6_ISR
0000e2b1   _DSP28x_usDelay
0000fdb6   _DTIME_INNERLOOP
0000c269   _DecentPosCtrl
0000c3f6   _DecentPosCtrlGetSetPoint
0000c46f   _DecentPosCtrlReset
0000c328   _DecentPosCtrl_new
00000880   _DevEmuRegs
000099ee   _DiffSat
0000cc66   _DisableDog
00001000   _DmaRegs
0000fd04   _Duty
0000c843   _ECAN0INTA_ISR
0000c857   _ECAN0INTB_ISR
0000c84d   _ECAN1INTA_ISR
0000c861   _ECAN1INTB_ISR
0000c72b   _ECAP1_INT_ISR
0000c735   _ECAP2_INT_ISR
0000c73f   _ECAP3_INT_ISR
0000c749   _ECAP4_INT_ISR
0000c753   _ECAP5_INT_ISR
0000c75d   _ECAP6_INT_ISR
00006040   _ECanaLAMRegs
000060c0   _ECanaMOTORegs
00006080   _ECanaMOTSRegs
00006100   _ECanaMboxes
00006000   _ECanaRegs
00006240   _ECanbLAMRegs
000062c0   _ECanbMOTORegs
00006280   _ECanbMOTSRegs
00006300   _ECanbMboxes
00006200   _ECanbRegs
00006a00   _ECap1Regs
00006a20   _ECap2Regs
00006a40   _ECap3Regs
00006a60   _ECap4Regs
00006a80   _ECap5Regs
00006aa0   _ECap6Regs
0000b6ce   _ECap_Init
0000b5b4   _ECap_PortConfig
0000c8b1   _EMPTY_ISR
0000c5d7   _EMUINT_ISR
0000c6ef   _EPWM1_INT_ISR
0000c6b3   _EPWM1_TZINT_ISR
0000c6f9   _EPWM2_INT_ISR
0000c6bd   _EPWM2_TZINT_ISR
0000c703   _EPWM3_INT_ISR
0000c6c7   _EPWM3_TZINT_ISR
0000c70d   _EPWM4_INT_ISR
0000c6d1   _EPWM4_TZINT_ISR
0000c717   _EPWM5_INT_ISR
0000c6db   _EPWM5_TZINT_ISR
0000c721   _EPWM6_INT_ISR
0000c6e5   _EPWM6_TZINT_ISR
00006800   _EPwm1Regs
00006840   _EPwm2Regs
00006880   _EPwm3Regs
000068c0   _EPwm4Regs
00006900   _EPwm5Regs
00006940   _EPwm6Regs
0000c767   _EQEP1_INT_ISR
0000c771   _EQEP2_INT_ISR
00006b00   _EQep1Regs
00006b40   _EQep2Regs
0000d625   _EnableInterrupts
0000f510   _FLAG_HeightFliter
0000b28b   _FilterReset_2o
0000b1ec   _FilterRun_2o
000087d4   _Filter_1LP
0000813c   _Filter_1LPV
0000f00f   _FlagSetHP
0000f50e   _FlagYawRun
00000a80   _FlashRegs
0000a412   _FlightScdCmd
0000a3aa   _FlightScdDesign
0000a40a   _FlightScdOn
0000a3d9   _FlightScdRun
0000ce4d   _FormLF_Leader_FormCmd
0000cf08   _FormSetPosition
0000f300   _GPS
00008ccd   _GPSPacketClean
00008947   _GPSPacketRead
00008930   _GPSPacketReady
0000f480   _GPSstring
00008370   _GetAccRaw
0000cd66   _GetCmd
0000ce33   _GetCmdType
00008cc4   _GetGPSGSpeed
00008c52   _GetGPSNSV
00008b78   _GetGPSPosition
00008c3f   _GetGPSSpeed
00008bff   _GetGPSSpeed_V4
00008cb0   _GetGPSTime
00008cbb   _GetGPSTrack
00008386   _GetGyroRaw
00008dce   _GetHeightURM37
00008d58   _GetRC
0000ab97   _GetSetValue
0000ab67   _GetSetValue_Yaw
00009299   _GetThrottle
00006f80   _GpioCtrlRegs
00006fc0   _GpioDataRegs
00006fe0   _GpioIntRegs
000084b9   _GyroFilter
0000b646   _HMC5983_PortConfig
0000fdc5   _HMCCOUNTbegin
0000fdc4   _HMCCOUNTend
0000c95c   _HMC_CalcMag
0000c8d2   _HMC_Init
0000f543   _HMC_REGIS
0000c913   _HMC_ReadMag
0000f540   _HMC_TESTRg
0000caa8   _HMC_WR
0000cb01   _HMC_WR0
0000f54c   _HMC_raw
0000fdc6   _HMC_threshold
0000b8fc   _HQ7001_Ex
0000b93a   _HQ7001_Get
0000b666   _HQ7001_Init
0000b5ea   _HQ7001_PortConfig
0000b4bf   _Hardware_Init
00009a47   _HeightCtrlGPS
00009a1d   _HeightCtrlGetSetPoint
00009b27   _HeightCtrlReset
0000b2a4   _HeightFilter
0000a2b1   _HeightFilterBA
0000a39f   _HeightFilterBA_SetBiasA
0000a392   _HeightFilterBA_SetValue
0000b3fb   _HeightFilterGPS
0000b3f6   _HeightFilter_GetBiasA
0000f0ce   _Height_URM37
0000c7f3   _I2CINT1A_ISR
0000c7fd   _I2CINT2A_ISR
00007900   _I2caRegs
0000c5eb   _ILLEGAL_ISR
0000c5af   _INT13_ISR
0000c5b9   _INT14_ISR
0000fcf4   _INTG_POS_SAT
0000bf75   _ISRSciRxAFifo
0000bfb5   _ISRSciRxCFifo
0000bf42   _ISRSciTxCFifo
0000b9e7   _ISRTimer0
0000d38a   _InitCpuTimers
0000cc41   _InitFlash
0000ccbe   _InitPeripheralClocks
0000d606   _InitPieCtrl
0000d6b8   _InitPieVectTable
0000cc6e   _InitPll
0000cc38   _InitSysCtrl
0000d1d1   _InterruptsEnable
000090d3   _IsAutoMode
0000ce3b   _IsMsgEmpty
00008d4d   _IsMsgReady
00008926   _IsSendOK
0000fcee   _KHa
0000fcf0   _KHi
0000fcf2   _KHv
0000f0c0   _KLati2Meter
0000f0bc   _KLong2Meter
0000fd76   _K_acc
0000fd06   _K_f2t
0000fd7c   _K_gyro
0000fd10   _K_t2t
0000f052   _K_x_acc
0000f05c   _K_y_acc
0000f064   _Kd_pitch
0000f04e   _Kd_roll
0000f0a0   _Kd_x
0000f0a4   _Kd_y
0000f06e   _Kd_yaw
0000f09c   _Kd_z
0000fd5c   _Kha
0000fd58   _Khba
0000fd5a   _Khv
0000f072   _Ki_pitch
0000f036   _Ki_roll
0000f09e   _Ki_x
0000f0a6   _Ki_y
0000f06a   _Ki_yaw
0000f0a2   _Ki_z
0000fdbc   _KitoVel
0000f068   _Kp_pitch
0000f0d0   _Kp_roll
0000f042   _Kp_x
0000f05a   _Kp_x_roll
0000f040   _Kp_y
0000f070   _Kp_yaw
0000f044   _Kp_z
0000f05e   _Kq_y_pitch
0000f062   _Kr_z_yaw
0000c8a7   _LUF_ISR
0000c89d   _LVF_ISR
0000f0e4   _Latitude_zero
0000f0e0   _Longitude_zero
0000fcfe   _MAGNETIC_VARIATION
0000fd82   _MAG_OFFSET
0000fd88   _MAG_SCALE
0000fcda   _MEANCYCLE
0000c7a3   _MRINTA_ISR
0000c78f   _MRINTB_ISR
0000b626   _MS5803_PortConfig
0000c7ad   _MXINTA_ISR
0000c799   _MXINTB_ISR
00008747   _MagFilter
0000fac4   _MagX
0000fac5   _MagY
0000fac3   _MagZ
00005000   _McbspaRegs
00005040   _McbspbRegs
0000882b   _MsgAppend_byte
0000883a   _MsgAppend_float
000088a7   _MsgAppend_int
0000886f   _MsgAppend_rad
0000cd5c   _MsgReset
000088cc   _MsgSend
0000cd4a   _MsgSetDest
0000cd54   _MsgSetSrc
0000c5e1   _NMI_ISR
0000f876   _OFF
0000f866   _OFF_T1
000090df   _Output2PWM
0000c8be   _PIE_RESERVED
0000fdb2   _PITCH_SAT
0000fd0e   _PULSE_MAX
0000fd0c   _PULSE_MIN
0000b7ba   _PWM_Init
0000b592   _PWM_PortConfig
00008017   _PWMset
00000ce0   _PieCtrlRegs
00000d00   _PieVectTable
0000fbda   _PieVectTableInit
0000d1a3   _PieVectTableRegister
0000af26   _PosFilter
0000cf29   _PsaiMdf
0000c070   _RC1_ISR
0000c0cd   _RC2_ISR
0000bff5   _RC3_ISR
0000c12a   _RC4_ISR
0000c187   _RC6_ISR
00008e18   _RCAttSet
0000f0d6   _RCInput
00008f0e   _RCPosSet
00009077   _RCYawSet
0000fd8e   _RC_ATT_SAT
0000f0d4   _RC_alfa
0000f1cc   _RC_width
0000f556   _RCacc_set
0000fd94   _RCinputDZ
0000f0fc   _RCinputSM
0000f562   _RCpos_set
0000f566   _RCspd_set
0000c5cd   _RTOSINT_ISR
0000f003   _RX_Count
0000fac6   _Ratio_HMC
0000c81b   _SCIRXINTA_ISR
0000c82f   _SCIRXINTB_ISR
0000c807   _SCIRXINTC_ISR
0000bf00   _SCIRXINTb_ISR
0000c825   _SCITXINTA_ISR
0000c839   _SCITXINTB_ISR
0000c811   _SCITXINTC_ISR
0000a203   _SDBufAppend_buflen
0000a151   _SDBufAppend_float
0000a178   _SDBufAppend_float2
0000a135   _SDBufAppend_int
0000a1bd   _SDBufAppend_rad
0000a1ed   _SDBufAppend_zeros
0000a115   _SDBufReset
0000b9b5   _SD_Ex
0000b838   _SD_Init
0000b608   _SD_PortConfig
00009fe9   _SD_ReadBlock
0000a0ec   _SD_SetStartSector
0000a052   _SD_WriteBlock
0000e800   _SD_buffer
0000f872   _SENS
0000f868   _SENS_T1
0000c66d   _SEQ1INT_ISR
0000c677   _SEQ2INT_ISR
0000c77b   _SPIRXINTA_ISR
0000c785   _SPITXINTA_ISR
0000cf70   _Saturation
00007050   _SciaRegs
0000b681   _Scia_Init
0000b550   _Scia_PortConfig
0000b967   _Scia_Xmit
0000b98d   _Scia_msg
00007750   _ScibRegs
0000b69a   _Scib_Init
0000b564   _Scib_PortConfig
0000b974   _Scib_Xmit
00007770   _ScicRegs
0000b6b1   _Scic_Init
0000b578   _Scic_PortConfig
0000b980   _Scic_Xmit
0000b9a1   _Scic_msg
0000f07c   _Sector_buffer
0000cc5c   _ServiceDog
0000c4db   _SetAgent
00009b60   _SetCtrlPara
00009d0f   _SetDestPos
0000ceca   _SetFormation
0000a456   _SetNextPoint
00009251   _SetRotor
0000a213   _SetVar
00009b46   _SetVector
0000c4c7   _Set_offV
0000f0ba   _Sfai_hat
0000aebb   _SpdFilterUWB
00007040   _SpiaRegs
00007010   _SysCtrlRegs
0000b4f8   _TB6612_Portconfig
0000f860   _TCO
0000f867   _TCS
0000f86c   _TEMP
0000f85f   _TEMPSENS
0000c69f   _TINT0_ISR
0000b526   _TLC2543_PortConfig
0000b8b2   _TLC2543_Read
0000f85e   _T_REF
0000fd9a   _T_model
0000a94e   _TrackReset
0000a907   _TrackReset_V4
0000a9ad   _TrackSet
0000aa06   _Traj_Tangential
0000f056   _Ts_pitch
0000f054   _Ts_roll
0000f058   _Ts_yaw
0000f0c8   _Tsita_hat
0000f02e   _U2
0000f02c   _U2_
0000fce2   _U2_sat
0000f046   _U2d
0000fce6   _U2d_sat
0000f066   _U2i
0000fcde   _U2i_sat
0000f032   _U3
0000f02a   _U3_
0000fce4   _U3_sat
0000f04a   _U3d
0000fce8   _U3d_sat
0000f034   _U3i
0000fcdc   _U3i_sat
0000f048   _U4
0000f030   _U4_
0000fcec   _U4_sat
0000f04c   _U4d
0000fcea   _U4d_sat
0000f038   _U4i
0000fce0   _U4i_sat
0000b803   _URM37_Init
0000b5aa   _URM37_PortConfig
00008dd7   _URM_Trigger
0000c64f   _USER10_ISR
0000c659   _USER11_ISR
0000c663   _USER12_ISR
0000c5f5   _USER1_ISR
0000c5ff   _USER2_ISR
0000c609   _USER3_ISR
0000c613   _USER4_ISR
0000c61d   _USER5_ISR
0000c627   _USER6_ISR
0000c631   _USER7_ISR
0000c63b   _USER8_ISR
0000c645   _USER9_ISR
0000c1e4   _USonic_ISR
0000f1ae   _UWB
00008205   _UWBPacketRead
00008199   _UWBPacketReady
0000f294   _UWBRxBuffer
0000f176   _Uout_V4plus
0000f170   _Uout_V4plus_
0000f180   _Uout_gyro
0000f14c   _Uout_gyro_
0000cf8c   _VectorSub
0000c6a9   _WAKEINT_ISR
00008cd1   _WirelessDataAppend
0000f2de   _Wirelessstring
0000a0ce   _WriteNextBlock
0000c681   _XINT1_ISR
0000c68b   _XINT2_ISR
0000c86b   _XINT3_ISR
0000c875   _XINT4_ISR
0000c87f   _XINT5_ISR
0000c889   _XINT6_ISR
0000c893   _XINT7_ISR
00007070   _XIntruptRegs
0000ce26   _XORCheck
00000b20   _XintfRegs
0000ce15   _XorSum
0000f50f   _YawSpinRun
00008920   _ZigbeeResetAddress
000088f3   _ZigbeeSend
00000700   __STACK_END
00000300   __STACK_SIZE
00000001   __TI_args_main
0000fa3c   ___TI_cleanup_ptr
0000fa3e   ___TI_dtors_ptr
ffffffff   ___binit__
ffffffff   ___c_args__
0000d7b9   ___cinit__
0000d7b9   ___etext__
0000d697   ___memcpy_ff
ffffffff   ___pinit__
00008000   ___text__
0000d730   __args_main
0000fad8   __ctypes_
0000f87c   __lock
0000d7ac   __nop
0000d7a8   __register_lock
0000d7a4   __register_unlock
00000400   __stack
0000f87a   __unlock
0000f780   _aNeighbors
0000f680   _aRef
0000f6c0   _aSelf
0000fda0   _a_model
0000d749   _abort
0000f600   _acc
0000f224   _acc_0
0000f218   _acc_1
0000f20c   _acc_2
0000f5e4   _acc_bodyframe
0000f606   _acc_f
0000f54f   _acc_raw
0000f612   _acc_set
0000f5b0   _acc_setsum
0000f88a   _acce
0000f03a   _accx_feed
0000f050   _accx_feed_
0000f03e   _accy_feed
0000f03c   _accy_feed_
0000f502   _ack
0000f98e   _addrNeighbors
0000fd64   _addr_follower
0000fd65   _addr_leader
0000fd66   _addr_server
0000fab2   _ag_
0000f06c   _alfa_accfeedback
0000f0cc   _anglenow
0000f340   _arraySchedule
0000d406   _atan
0000d002   _atan2
0000d7b5   _atof
0000d5d5   _atoi
0000f5a4   _att
0000f570   _att2
0000f19e   _att_0
0000f18e   _att_1
0000f59e   _att_a
0000f518   _att_error
0000f128   _att_hat
0000f5b6   _att_set
0000f0f4   _att_set_NAV
0000f158   _att_set_V4
0000f51a   _att_zero
0000f508   _bAutoMode
0000f017   _bBACal
0000f513   _bGPSUpdate
0000f50c   _bGPSnormal
0000f500   _bInitializing
0000fa28   _bLeader
0000f85c   _bMS5803_On
0000f863   _bPrs
0000f01c   _bRC6high
0000fad2   _bSDExist
0000f021   _bShutdown
0000f50d   _bStatus
0000f864   _bTemp
0000f01e   _bThroOff
0000f023   _bTurnAuto
0000f025   _bUSIdle
0000f509   _bUScal
0000f400   _b_send
0000f0aa   _basicOut
0000fcf8   _basicOutFly
0000fcf6   _basicOutGround
0000fd56   _biasGravity
0000f078   _bufI32
0000f110   _buf_Acc
0000f85d   _cHigh
0000f865   _cLow
0000fad1   _cRet
0000d58f   _c_int00
0000f659   _cmdR
0000f64c   _cmdS
0000f546   _cmps_raw
0000fac8   _cmps_raw_
0000facb   _cmps_sum
0000fa40   _cntUSjump
0000fa41   _cntUSoff
0000f000   _cnt_CG
0000f00d   _cnt_GPS
0000f026   _cnt_GRC
0000fac1   _cnt_HMC
0000facf   _cnt_HQ7001
0000f001   _cnt_MA
0000f01d   _cnt_RC6
0000fad6   _cnt_SD
0000f01b   _cnt_SDBA
0000f024   _cnt_SDR
0000f011   _cnt_SDW
0000f027   _cnt_SV
0000fad0   _cnt_TLC
0000f028   _cnt_URMTrigger
0000f007   _cnt_comma
0000f87e   _cnt_idle
0000f87f   _cnt_landing
0000f512   _com_period_formation
0000f511   _com_period_report
0000d475   _cos
0000f009   _countHomePoint
0000f86e   _dT
0000f122   _d_att
0000f12e   _d_att_hat
0000f005   _data_temp
0000f015   _debugonly
0000cf5d   _deg2rad
0000f880   _disp
0000fa9a   _ep
0000fdc0   _errYaw
0000f096   _err_height
0000f098   _err_height_
0000f10c   _err_pitch
0000f0d8   _err_pitch_f
0000f108   _err_roll
0000f100   _err_roll_f
0000f0b2   _err_vheight
0000f0ac   _err_vheight_
0000f104   _err_yaw
0000f0dc   _err_yaw_f
0000fabe   _errno
0000faa0   _ev
0000d74b   _exit
0000f134   _f
0000fd02   _fACC
0000fdb4   _fATTSET
0000fcfa   _fGYRO
0000fd00   _fMag
0000f9a8   _f_hat
0000f9a2   _f_hat_
0000cff8   _fabs
0000f514   _flagHMC
0000f0d2   _flp_temp
0000f060   _fre_anglerate
0000d762   _frexp
0000f552   _fsm
0000f13a   _g
0000f52a   _gspeedGPS
0000f5de   _gyro
0000f1c0   _gyro_0
0000f200   _gyro_1
0000f1d8   _gyro_2
0000f146   _gyro_V4
0000f11c   _gyro_bias
0000f116   _gyro_bias_sum
0000f549   _gyro_raw
0000f076   _hBA
0000f520   _height
0000f0b0   _height_
0000f51e   _height_BA
0000f51c   _height_US
0000f516   _height_backup
0000f164   _homepoint
0000fac0   _iHMC
0000f861   _iMS5803
0000f501   _iNeighbors
0000fad5   _iSD
0000f50b   _i_w
0000f094   _intgX
0000f09a   _intgY
0000f0b4   _intg_height
0000f00a   _isSure
0000f022   _isTakeOff
0000f986   _k11
0000f980   _k12
0000f988   _k21
0000f982   _k22
0000f010   _lenBuffer
0000f00e   _lenGPS
0000f01f   _lenWRL
0000f5f0   _mag
0000f1f0   _mag_0
0000f1e4   _mag_1
0000f230   _mag_2
0000d162   _main
0000fdc2   _minyawstep
0000f740   _msg
0000f53c   _msgR
0000f380   _msgRead
0000f3c0   _msgRecv
0000f506   _n_poscycle
0000fcdb   _net_address
0000f50a   _nsvGPS
0000f013   _offBufHead
0000f019   _offBufTail
0000f98c   _offsetvx
0000f61e   _output
0000face   _output_TLC
0000f280   _pComma
0000f00b   _pHead
0000f00c   _pTail
0000f012   _pWrite
0000f07a   _p_bias
0000f618   _p_c
0000fa94   _p_hat
0000fa88   _p_hat_
0000f090   _pdX
0000f092   _pdY
0000faa6   _pi_
0000f58c   _pos
0000f0f0   _pos1_set
0000f598   _posGPS
0000f15e   _posGPS_
0000f9c0   _pos_f
0000f9f0   _pos_hat_e
0000f9d8   _pos_hat_e_
0000f9cc   _pos_hat_r
0000f9b4   _pos_hat_r_
0000fa30   _pos_leader
0000fa2a   _pos_offset
0000f56a   _pos_r
0000f5f6   _pos_set
0000f5c0   _pos_setsum
0000f60c   _pos_zero
0000f53a   _pres
0000f074   _pres2height
0000f507   _pres_biased
0000f626   _pwm
0000f196   _pwm_c
0000f55a   _pwm_i
0000f1a6   _pwm_o
0000cf50   _rad2deg
0000f140   _rc_att_out
0000f152   _rc_att_u_
0000f262   _rc_att_z
0000f250   _rc_att_z_
0000f640   _rcctrl
0000f240   _rdataA
0000f002   _rec_Scia
0000f020   _rec_Scic
0000f9e4   _res1
0000f9f6   _res2
0000fac2   _retHMC
0000f862   _retMS5803
0000f014   _retSD
0000fad3   _retSDEx
0000fad4   _ret_HQ7001
0000c8c8   _rsvd_ISR
0000f700   _scdFlight
0000f538   _sectorSD
0000f16a   _sensitivity
0000cfd4   _sign
0000cfb2   _signcyc
0000d537   _sin
0000f88c   _sita_t
0000f882   _spd
0000f5c6   _spd_set
0000f5aa   _spd_setsum
0000f5cc   _spd_sett_
0000f5d2   _spd_zero
0000cfef   _sqr
0000d652   _sqrt
0000f186   _strZigbeeResetAddr
0000d79a   _strcmp
0000cb15   _strtod
0000f504   _swarmflag
0000fa72   _t
0000f536   _t0
0000f526   _tGPS_0
0000f530   _tGPS_1
0000fa74   _t_
0000f884   _t_Traj
0000d4d6   _tan
0000f505   _temp_HMC
0000f532   _tempa
0000f55e   _timeGPS
0000f004   _time_count_UWB
0000f52e   _time_zero
0000f503   _timer_count
0000f990   _tmCom
0000f52c   _trackGPS
0000f8c0   _traj_ab
0000f9ea   _u
0000fa00   _uatt_0
0000fa08   _uatt_1
0000f592   _ure
0000f98a   _ux
0000f984   _uy
0000f580   _vGPS
0000f576   _vGPS_dif
0000f586   _vGPS_ori
0000f522   _vHeight
0000f0be   _vTemp
0000f5ea   _v_ctrl
0000faac   _v_hat
0000fa8e   _v_hat_
0000f5d8   _vel
0000f0f8   _vel1_set
0000f9c6   _vel_f
0000f9d2   _vel_hat_e
0000f9de   _vel_hat_e_
0000f9ba   _vel_hat_r
0000f9ae   _vel_hat_r_
0000fa36   _vel_leader
0000f0ae   _vheight_
0000fab8   _vi_
0000f888   _vmax
0000f99c   _vv
0000f996   _vv_
0000f62e   _w
0000f0ca   _w1
0000f0b6   _w2
0000f0c2   _w3
0000f0b8   _w4
0000f524   _w_all
0000fd68   _w_sat
0000f528   _wrlStr
0000f016   _xc
0000f534   _yaw
0000f01a   _yc
0000f018   _zc
ffffffff   binit
0000d7b9   cinit
00000000   code_start
0000d7b9   etext
ffffffff   pinit


GLOBAL SYMBOLS: SORTED BY Symbol Address 

address    name
--------   ----
00000000   code_start
00000001   __TI_args_main
00000300   __STACK_SIZE
00000400   __stack
00000700   __STACK_END
00000880   _DevEmuRegs
00000a80   _FlashRegs
00000ae0   _CsmRegs
00000b00   _AdcMirror
00000b20   _XintfRegs
00000c00   _CpuTimer0Regs
00000c08   _CpuTimer1Regs
00000c10   _CpuTimer2Regs
00000ce0   _PieCtrlRegs
00000d00   _PieVectTable
00001000   _DmaRegs
00005000   _McbspaRegs
00005040   _McbspbRegs
00006000   _ECanaRegs
00006040   _ECanaLAMRegs
00006080   _ECanaMOTSRegs
000060c0   _ECanaMOTORegs
00006100   _ECanaMboxes
00006200   _ECanbRegs
00006240   _ECanbLAMRegs
00006280   _ECanbMOTSRegs
000062c0   _ECanbMOTORegs
00006300   _ECanbMboxes
00006800   _EPwm1Regs
00006840   _EPwm2Regs
00006880   _EPwm3Regs
000068c0   _EPwm4Regs
00006900   _EPwm5Regs
00006940   _EPwm6Regs
00006a00   _ECap1Regs
00006a20   _ECap2Regs
00006a40   _ECap3Regs
00006a60   _ECap4Regs
00006a80   _ECap5Regs
00006aa0   _ECap6Regs
00006b00   _EQep1Regs
00006b40   _EQep2Regs
00006f80   _GpioCtrlRegs
00006fc0   _GpioDataRegs
00006fe0   _GpioIntRegs
00007010   _SysCtrlRegs
00007040   _SpiaRegs
00007050   _SciaRegs
00007070   _XIntruptRegs
00007100   _AdcRegs
00007750   _ScibRegs
00007770   _ScicRegs
00007900   _I2caRegs
00008000   .text
00008000   ___text__
00008017   _PWMset
0000813c   _Filter_1LPV
00008199   _UWBPacketReady
000081b3   _Ascll2Float
00008205   _UWBPacketRead
00008370   _GetAccRaw
00008386   _GetGyroRaw
000083a8   _ConvAcc
000083e5   _ConvGyro
000084b9   _GyroFilter
000084ca   _CalcAtt_a
00008581   _CalcAcc_bodyframe
000085b9   _AttFilter
000086ea   _AccFilter
00008747   _MagFilter
000087d4   _Filter_1LP
0000882b   _MsgAppend_byte
0000883a   _MsgAppend_float
0000886f   _MsgAppend_rad
000088a7   _MsgAppend_int
000088cc   _MsgSend
000088f3   _ZigbeeSend
00008920   _ZigbeeResetAddress
00008926   _IsSendOK
00008930   _GPSPacketReady
00008947   _GPSPacketRead
00008b78   _GetGPSPosition
00008bff   _GetGPSSpeed_V4
00008c3f   _GetGPSSpeed
00008c52   _GetGPSNSV
00008cb0   _GetGPSTime
00008cbb   _GetGPSTrack
00008cc4   _GetGPSGSpeed
00008ccd   _GPSPacketClean
00008cd1   _WirelessDataAppend
00008d4d   _IsMsgReady
00008d58   _GetRC
00008dce   _GetHeightURM37
00008dd7   _URM_Trigger
00008e18   _RCAttSet
00008f0e   _RCPosSet
00009077   _RCYawSet
000090d3   _IsAutoMode
000090df   _Output2PWM
00009251   _SetRotor
00009299   _GetThrottle
000092c2   _AttCtrl_V4
000099ee   _DiffSat
00009a1d   _HeightCtrlGetSetPoint
00009a47   _HeightCtrlGPS
00009b27   _HeightCtrlReset
00009b46   _SetVector
00009b60   _SetCtrlPara
00009d0f   _SetDestPos
00009fe9   _SD_ReadBlock
0000a052   _SD_WriteBlock
0000a0ce   _WriteNextBlock
0000a0ec   _SD_SetStartSector
0000a115   _SDBufReset
0000a135   _SDBufAppend_int
0000a151   _SDBufAppend_float
0000a178   _SDBufAppend_float2
0000a1bd   _SDBufAppend_rad
0000a1ed   _SDBufAppend_zeros
0000a203   _SDBufAppend_buflen
0000a213   _SetVar
0000a247   _Baro2Height
0000a25e   _Baro2Height_cal
0000a289   _Baro2Height_cal2
0000a2b1   _HeightFilterBA
0000a392   _HeightFilterBA_SetValue
0000a39f   _HeightFilterBA_SetBiasA
0000a3aa   _FlightScdDesign
0000a3d9   _FlightScdRun
0000a40a   _FlightScdOn
0000a412   _FlightScdCmd
0000a456   _SetNextPoint
0000a907   _TrackReset_V4
0000a94e   _TrackReset
0000a9ad   _TrackSet
0000aa06   _Traj_Tangential
0000ab67   _GetSetValue_Yaw
0000ab97   _GetSetValue
0000aebb   _SpdFilterUWB
0000af26   _PosFilter
0000b1ec   _FilterRun_2o
0000b28b   _FilterReset_2o
0000b2a4   _HeightFilter
0000b3f6   _HeightFilter_GetBiasA
0000b3fb   _HeightFilterGPS
0000b4bf   _Hardware_Init
0000b4f8   _TB6612_Portconfig
0000b526   _TLC2543_PortConfig
0000b550   _Scia_PortConfig
0000b564   _Scib_PortConfig
0000b578   _Scic_PortConfig
0000b592   _PWM_PortConfig
0000b5aa   _URM37_PortConfig
0000b5b4   _ECap_PortConfig
0000b5ea   _HQ7001_PortConfig
0000b608   _SD_PortConfig
0000b626   _MS5803_PortConfig
0000b646   _HMC5983_PortConfig
0000b666   _HQ7001_Init
0000b681   _Scia_Init
0000b69a   _Scib_Init
0000b6b1   _Scic_Init
0000b6ce   _ECap_Init
0000b7ba   _PWM_Init
0000b803   _URM37_Init
0000b838   _SD_Init
0000b8b2   _TLC2543_Read
0000b8fc   _HQ7001_Ex
0000b93a   _HQ7001_Get
0000b967   _Scia_Xmit
0000b974   _Scib_Xmit
0000b980   _Scic_Xmit
0000b98d   _Scia_msg
0000b9a1   _Scic_msg
0000b9b5   _SD_Ex
0000b9e7   _ISRTimer0
0000bf00   _SCIRXINTb_ISR
0000bf42   _ISRSciTxCFifo
0000bf75   _ISRSciRxAFifo
0000bfb5   _ISRSciRxCFifo
0000bff5   _RC3_ISR
0000c070   _RC1_ISR
0000c0cd   _RC2_ISR
0000c12a   _RC4_ISR
0000c187   _RC6_ISR
0000c1e4   _USonic_ISR
0000c269   _DecentPosCtrl
0000c328   _DecentPosCtrl_new
0000c3f6   _DecentPosCtrlGetSetPoint
0000c46f   _DecentPosCtrlReset
0000c48d   _ComTimerRun
0000c4b8   _ComTimerReset
0000c4c7   _Set_offV
0000c4db   _SetAgent
0000c50f   _AgentStates2Cmd
0000c5af   _INT13_ISR
0000c5b9   _INT14_ISR
0000c5c3   _DATALOG_ISR
0000c5cd   _RTOSINT_ISR
0000c5d7   _EMUINT_ISR
0000c5e1   _NMI_ISR
0000c5eb   _ILLEGAL_ISR
0000c5f5   _USER1_ISR
0000c5ff   _USER2_ISR
0000c609   _USER3_ISR
0000c613   _USER4_ISR
0000c61d   _USER5_ISR
0000c627   _USER6_ISR
0000c631   _USER7_ISR
0000c63b   _USER8_ISR
0000c645   _USER9_ISR
0000c64f   _USER10_ISR
0000c659   _USER11_ISR
0000c663   _USER12_ISR
0000c66d   _SEQ1INT_ISR
0000c677   _SEQ2INT_ISR
0000c681   _XINT1_ISR
0000c68b   _XINT2_ISR
0000c695   _ADCINT_ISR
0000c69f   _TINT0_ISR
0000c6a9   _WAKEINT_ISR
0000c6b3   _EPWM1_TZINT_ISR
0000c6bd   _EPWM2_TZINT_ISR
0000c6c7   _EPWM3_TZINT_ISR
0000c6d1   _EPWM4_TZINT_ISR
0000c6db   _EPWM5_TZINT_ISR
0000c6e5   _EPWM6_TZINT_ISR
0000c6ef   _EPWM1_INT_ISR
0000c6f9   _EPWM2_INT_ISR
0000c703   _EPWM3_INT_ISR
0000c70d   _EPWM4_INT_ISR
0000c717   _EPWM5_INT_ISR
0000c721   _EPWM6_INT_ISR
0000c72b   _ECAP1_INT_ISR
0000c735   _ECAP2_INT_ISR
0000c73f   _ECAP3_INT_ISR
0000c749   _ECAP4_INT_ISR
0000c753   _ECAP5_INT_ISR
0000c75d   _ECAP6_INT_ISR
0000c767   _EQEP1_INT_ISR
0000c771   _EQEP2_INT_ISR
0000c77b   _SPIRXINTA_ISR
0000c785   _SPITXINTA_ISR
0000c78f   _MRINTB_ISR
0000c799   _MXINTB_ISR
0000c7a3   _MRINTA_ISR
0000c7ad   _MXINTA_ISR
0000c7b7   _DINTCH1_ISR
0000c7c1   _DINTCH2_ISR
0000c7cb   _DINTCH3_ISR
0000c7d5   _DINTCH4_ISR
0000c7df   _DINTCH5_ISR
0000c7e9   _DINTCH6_ISR
0000c7f3   _I2CINT1A_ISR
0000c7fd   _I2CINT2A_ISR
0000c807   _SCIRXINTC_ISR
0000c811   _SCITXINTC_ISR
0000c81b   _SCIRXINTA_ISR
0000c825   _SCITXINTA_ISR
0000c82f   _SCIRXINTB_ISR
0000c839   _SCITXINTB_ISR
0000c843   _ECAN0INTA_ISR
0000c84d   _ECAN1INTA_ISR
0000c857   _ECAN0INTB_ISR
0000c861   _ECAN1INTB_ISR
0000c86b   _XINT3_ISR
0000c875   _XINT4_ISR
0000c87f   _XINT5_ISR
0000c889   _XINT6_ISR
0000c893   _XINT7_ISR
0000c89d   _LVF_ISR
0000c8a7   _LUF_ISR
0000c8b1   _EMPTY_ISR
0000c8be   _PIE_RESERVED
0000c8c8   _rsvd_ISR
0000c8d2   _HMC_Init
0000c913   _HMC_ReadMag
0000c95c   _HMC_CalcMag
0000caa8   _HMC_WR
0000cb01   _HMC_WR0
0000cb15   _strtod
0000cc38   _InitSysCtrl
0000cc41   _InitFlash
0000cc5c   _ServiceDog
0000cc66   _DisableDog
0000cc6e   _InitPll
0000ccbe   _InitPeripheralClocks
0000cd19   _CsmUnlock
0000cd4a   _MsgSetDest
0000cd54   _MsgSetSrc
0000cd5c   _MsgReset
0000cd66   _GetCmd
0000cdc3   _Cmd2Msg
0000ce15   _XorSum
0000ce26   _XORCheck
0000ce33   _GetCmdType
0000ce3b   _IsMsgEmpty
0000ce4d   _FormLF_Leader_FormCmd
0000ceca   _SetFormation
0000cf08   _FormSetPosition
0000cf29   _PsaiMdf
0000cf50   _rad2deg
0000cf5d   _deg2rad
0000cf70   _Saturation
0000cf8c   _VectorSub
0000cfb2   _signcyc
0000cfd4   _sign
0000cfef   _sqr
0000cff8   _fabs
0000d002   _atan2
0000d0c6   FD$$ADD
0000d162   _main
0000d1a3   _PieVectTableRegister
0000d1d1   _InterruptsEnable
0000d1f4   FD$$DIV
0000d27f   FS$$DIV
0000d307   FD$$MPY
0000d38a   _InitCpuTimers
0000d3cb   _ConfigCpuTimer
0000d406   _atan
0000d475   _cos
0000d4d6   _tan
0000d537   _sin
0000d58f   _c_int00
0000d5d5   _atoi
0000d606   _InitPieCtrl
0000d625   _EnableInterrupts
0000d62e   FD$$TOFS
0000d652   _sqrt
0000d675   I$$DIV
0000d686   I$$MOD
0000d697   ___memcpy_ff
0000d6b8   _InitPieVectTable
0000d6d8   FD$$TOL
0000d6f7   I$$TOFD
0000d714   FS$$TOFD
0000d730   __args_main
0000d749   C$$EXIT
0000d749   _abort
0000d74b   _exit
0000d762   _frexp
0000d778   LL$$MPY
0000d78c   FD$$SUB
0000d79a   _strcmp
0000d7a4   __register_unlock
0000d7a8   __register_lock
0000d7ac   __nop
0000d7b5   _atof
0000d7b9   ___cinit__
0000d7b9   ___etext__
0000d7b9   cinit
0000d7b9   etext
0000e2b1   _DSP28x_usDelay
0000e800   _SD_buffer
0000f000   _cnt_CG
0000f001   _cnt_MA
0000f002   _rec_Scia
0000f003   _RX_Count
0000f004   _time_count_UWB
0000f005   _data_temp
0000f006   _BiasGPS_X
0000f007   _cnt_comma
0000f008   _BiasGPS_Y
0000f009   _countHomePoint
0000f00a   _isSure
0000f00b   _pHead
0000f00c   _pTail
0000f00d   _cnt_GPS
0000f00e   _lenGPS
0000f00f   _FlagSetHP
0000f010   _lenBuffer
0000f011   _cnt_SDW
0000f012   _pWrite
0000f013   _offBufHead
0000f014   _retSD
0000f015   _debugonly
0000f016   _xc
0000f017   _bBACal
0000f018   _zc
0000f019   _offBufTail
0000f01a   _yc
0000f01b   _cnt_SDBA
0000f01c   _bRC6high
0000f01d   _cnt_RC6
0000f01e   _bThroOff
0000f01f   _lenWRL
0000f020   _rec_Scic
0000f021   _bShutdown
0000f022   _isTakeOff
0000f023   _bTurnAuto
0000f024   _cnt_SDR
0000f025   _bUSIdle
0000f026   _cnt_GRC
0000f027   _cnt_SV
0000f028   _cnt_URMTrigger
0000f02a   _U3_
0000f02c   _U2_
0000f02e   _U2
0000f030   _U4_
0000f032   _U3
0000f034   _U3i
0000f036   _Ki_roll
0000f038   _U4i
0000f03a   _accx_feed
0000f03c   _accy_feed_
0000f03e   _accy_feed
0000f040   _Kp_y
0000f042   _Kp_x
0000f044   _Kp_z
0000f046   _U2d
0000f048   _U4
0000f04a   _U3d
0000f04c   _U4d
0000f04e   _Kd_roll
0000f050   _accx_feed_
0000f052   _K_x_acc
0000f054   _Ts_roll
0000f056   _Ts_pitch
0000f058   _Ts_yaw
0000f05a   _Kp_x_roll
0000f05c   _K_y_acc
0000f05e   _Kq_y_pitch
0000f060   _fre_anglerate
0000f062   _Kr_z_yaw
0000f064   _Kd_pitch
0000f066   _U2i
0000f068   _Kp_pitch
0000f06a   _Ki_yaw
0000f06c   _alfa_accfeedback
0000f06e   _Kd_yaw
0000f070   _Kp_yaw
0000f072   _Ki_pitch
0000f074   _pres2height
0000f076   _hBA
0000f078   _bufI32
0000f07a   _p_bias
0000f07c   _Sector_buffer
0000f090   _pdX
0000f092   _pdY
0000f094   _intgX
0000f096   _err_height
0000f098   _err_height_
0000f09a   _intgY
0000f09c   _Kd_z
0000f09e   _Ki_x
0000f0a0   _Kd_x
0000f0a2   _Ki_z
0000f0a4   _Kd_y
0000f0a6   _Ki_y
0000f0aa   _basicOut
0000f0ac   _err_vheight_
0000f0ae   _vheight_
0000f0b0   _height_
0000f0b2   _err_vheight
0000f0b4   _intg_height
0000f0b6   _w2
0000f0b8   _w4
0000f0ba   _Sfai_hat
0000f0bc   _KLong2Meter
0000f0be   _vTemp
0000f0c0   _KLati2Meter
0000f0c2   _w3
0000f0c4   _Cfai_hat
0000f0c6   _Csita_hat
0000f0c8   _Tsita_hat
0000f0ca   _w1
0000f0cc   _anglenow
0000f0ce   _Height_URM37
0000f0d0   _Kp_roll
0000f0d2   _flp_temp
0000f0d4   _RC_alfa
0000f0d6   _RCInput
0000f0d8   _err_pitch_f
0000f0dc   _err_yaw_f
0000f0e0   _Longitude_zero
0000f0e4   _Latitude_zero
0000f0e8   _Cos_Latitude_zero
0000f0ec   _Atitude_zero
0000f0f0   _pos1_set
0000f0f4   _att_set_NAV
0000f0f8   _vel1_set
0000f0fc   _RCinputSM
0000f100   _err_roll_f
0000f104   _err_yaw
0000f108   _err_roll
0000f10c   _err_pitch
0000f110   _buf_Acc
0000f116   _gyro_bias_sum
0000f11c   _gyro_bias
0000f122   _d_att
0000f128   _att_hat
0000f12e   _d_att_hat
0000f134   _f
0000f13a   _g
0000f140   _rc_att_out
0000f146   _gyro_V4
0000f14c   _Uout_gyro_
0000f152   _rc_att_u_
0000f158   _att_set_V4
0000f15e   _posGPS_
0000f164   _homepoint
0000f16a   _sensitivity
0000f170   _Uout_V4plus_
0000f176   _Uout_V4plus
0000f180   _Uout_gyro
0000f186   _strZigbeeResetAddr
0000f18e   _att_1
0000f196   _pwm_c
0000f19e   _att_0
0000f1a6   _pwm_o
0000f1ae   _UWB
0000f1c0   _gyro_0
0000f1cc   _RC_width
0000f1d8   _gyro_2
0000f1e4   _mag_1
0000f1f0   _mag_0
0000f200   _gyro_1
0000f20c   _acc_2
0000f218   _acc_1
0000f224   _acc_0
0000f230   _mag_2
0000f240   _rdataA
0000f250   _rc_att_z_
0000f262   _rc_att_z
0000f280   _pComma
0000f294   _UWBRxBuffer
0000f2de   _Wirelessstring
0000f300   _GPS
0000f340   _arraySchedule
0000f380   _msgRead
0000f3c0   _msgRecv
0000f400   _b_send
0000f480   _GPSstring
0000f500   _bInitializing
0000f501   _iNeighbors
0000f502   _ack
0000f503   _timer_count
0000f504   _swarmflag
0000f505   _temp_HMC
0000f506   _n_poscycle
0000f507   _pres_biased
0000f508   _bAutoMode
0000f509   _bUScal
0000f50a   _nsvGPS
0000f50b   _i_w
0000f50c   _bGPSnormal
0000f50d   _bStatus
0000f50e   _FlagYawRun
0000f50f   _YawSpinRun
0000f510   _FLAG_HeightFliter
0000f511   _com_period_report
0000f512   _com_period_formation
0000f513   _bGPSUpdate
0000f514   _flagHMC
0000f516   _height_backup
0000f518   _att_error
0000f51a   _att_zero
0000f51c   _height_US
0000f51e   _height_BA
0000f520   _height
0000f522   _vHeight
0000f524   _w_all
0000f526   _tGPS_0
0000f528   _wrlStr
0000f52a   _gspeedGPS
0000f52c   _trackGPS
0000f52e   _time_zero
0000f530   _tGPS_1
0000f532   _tempa
0000f534   _yaw
0000f536   _t0
0000f538   _sectorSD
0000f53a   _pres
0000f53c   _msgR
0000f540   _HMC_TESTRg
0000f543   _HMC_REGIS
0000f546   _cmps_raw
0000f549   _gyro_raw
0000f54c   _HMC_raw
0000f54f   _acc_raw
0000f552   _fsm
0000f556   _RCacc_set
0000f55a   _pwm_i
0000f55e   _timeGPS
0000f562   _RCpos_set
0000f566   _RCspd_set
0000f56a   _pos_r
0000f570   _att2
0000f576   _vGPS_dif
0000f580   _vGPS
0000f586   _vGPS_ori
0000f58c   _pos
0000f592   _ure
0000f598   _posGPS
0000f59e   _att_a
0000f5a4   _att
0000f5aa   _spd_setsum
0000f5b0   _acc_setsum
0000f5b6   _att_set
0000f5c0   _pos_setsum
0000f5c6   _spd_set
0000f5cc   _spd_sett_
0000f5d2   _spd_zero
0000f5d8   _vel
0000f5de   _gyro
0000f5e4   _acc_bodyframe
0000f5ea   _v_ctrl
0000f5f0   _mag
0000f5f6   _pos_set
0000f600   _acc
0000f606   _acc_f
0000f60c   _pos_zero
0000f612   _acc_set
0000f618   _p_c
0000f61e   _output
0000f626   _pwm
0000f62e   _w
0000f640   _rcctrl
0000f64c   _cmdS
0000f659   _cmdR
0000f680   _aRef
0000f6c0   _aSelf
0000f700   _scdFlight
0000f740   _msg
0000f780   _aNeighbors
0000f85c   _bMS5803_On
0000f85d   _cHigh
0000f85e   _T_REF
0000f85f   _TEMPSENS
0000f860   _TCO
0000f861   _iMS5803
0000f862   _retMS5803
0000f863   _bPrs
0000f864   _bTemp
0000f865   _cLow
0000f866   _OFF_T1
0000f867   _TCS
0000f868   _SENS_T1
0000f86a   _D1
0000f86c   _TEMP
0000f86e   _dT
0000f870   _D2
0000f872   _SENS
0000f876   _OFF
0000f87a   __unlock
0000f87c   __lock
0000f87e   _cnt_idle
0000f87f   _cnt_landing
0000f880   _disp
0000f882   _spd
0000f884   _t_Traj
0000f888   _vmax
0000f88a   _acce
0000f88c   _sita_t
0000f8c0   _traj_ab
0000f980   _k12
0000f982   _k22
0000f984   _uy
0000f986   _k11
0000f988   _k21
0000f98a   _ux
0000f98c   _offsetvx
0000f98e   _addrNeighbors
0000f990   _tmCom
0000f996   _vv_
0000f99c   _vv
0000f9a2   _f_hat_
0000f9a8   _f_hat
0000f9ae   _vel_hat_r_
0000f9b4   _pos_hat_r_
0000f9ba   _vel_hat_r
0000f9c0   _pos_f
0000f9c6   _vel_f
0000f9cc   _pos_hat_r
0000f9d2   _vel_hat_e
0000f9d8   _pos_hat_e_
0000f9de   _vel_hat_e_
0000f9e4   _res1
0000f9ea   _u
0000f9f0   _pos_hat_e
0000f9f6   _res2
0000fa00   _uatt_0
0000fa08   _uatt_1
0000fa10   _CpuTimer1
0000fa18   _CpuTimer2
0000fa20   _CpuTimer0
0000fa28   _bLeader
0000fa2a   _pos_offset
0000fa30   _pos_leader
0000fa36   _vel_leader
0000fa3c   ___TI_cleanup_ptr
0000fa3e   ___TI_dtors_ptr
0000fa40   _cntUSjump
0000fa41   _cntUSoff
0000fa72   _t
0000fa74   _t_
0000fa88   _p_hat_
0000fa8e   _v_hat_
0000fa94   _p_hat
0000fa9a   _ep
0000faa0   _ev
0000faa6   _pi_
0000faac   _v_hat
0000fab2   _ag_
0000fab8   _vi_
0000fabe   _errno
0000fac0   _iHMC
0000fac1   _cnt_HMC
0000fac2   _retHMC
0000fac3   _MagZ
0000fac4   _MagX
0000fac5   _MagY
0000fac6   _Ratio_HMC
0000fac8   _cmps_raw_
0000facb   _cmps_sum
0000face   _output_TLC
0000facf   _cnt_HQ7001
0000fad0   _cnt_TLC
0000fad1   _cRet
0000fad2   _bSDExist
0000fad3   _retSDEx
0000fad4   _ret_HQ7001
0000fad5   _iSD
0000fad6   _cnt_SD
0000fad8   __ctypes_
0000fbda   _PieVectTableInit
0000fcda   _MEANCYCLE
0000fcdb   _net_address
0000fcdc   _U3i_sat
0000fcde   _U2i_sat
0000fce0   _U4i_sat
0000fce2   _U2_sat
0000fce4   _U3_sat
0000fce6   _U2d_sat
0000fce8   _U3d_sat
0000fcea   _U4d_sat
0000fcec   _U4_sat
0000fcee   _KHa
0000fcf0   _KHi
0000fcf2   _KHv
0000fcf4   _INTG_POS_SAT
0000fcf6   _basicOutGround
0000fcf8   _basicOutFly
0000fcfa   _fGYRO
0000fcfe   _MAGNETIC_VARIATION
0000fd00   _fMag
0000fd02   _fACC
0000fd04   _Duty
0000fd06   _K_f2t
0000fd08   _B_f2t
0000fd0a   _B_t2t
0000fd0c   _PULSE_MIN
0000fd0e   _PULSE_MAX
0000fd10   _K_t2t
0000fd56   _biasGravity
0000fd58   _Khba
0000fd5a   _Khv
0000fd5c   _Kha
0000fd64   _addr_follower
0000fd65   _addr_leader
0000fd66   _addr_server
0000fd68   _w_sat
0000fd6a   _B_acc
0000fd70   _B_gyro
0000fd76   _K_acc
0000fd7c   _K_gyro
0000fd82   _MAG_OFFSET
0000fd88   _MAG_SCALE
0000fd8e   _RC_ATT_SAT
0000fd94   _RCinputDZ
0000fd9a   _T_model
0000fda0   _a_model
0000fdb2   _PITCH_SAT
0000fdb4   _fATTSET
0000fdb6   _DTIME_INNERLOOP
0000fdbc   _KitoVel
0000fdc0   _errYaw
0000fdc2   _minyawstep
0000fdc4   _HMCCOUNTend
0000fdc5   _HMCCOUNTbegin
0000fdc6   _HMC_threshold
0033fff8   _CsmPwl
00380080   _ADC_cal
ffffffff   ___binit__
ffffffff   ___c_args__
ffffffff   ___pinit__
ffffffff   binit
ffffffff   pinit

[788 symbols]
